ARM GAS  C:\Users\User\AppData\Local\Temp\cciKCUxe.s 			page 1


   1              		.cpu cortex-m4
   2              		.arch armv7e-m
   3              		.fpu fpv4-sp-d16
   4              		.eabi_attribute 27, 1
   5              		.eabi_attribute 28, 1
   6              		.eabi_attribute 20, 1
   7              		.eabi_attribute 21, 1
   8              		.eabi_attribute 23, 3
   9              		.eabi_attribute 24, 1
  10              		.eabi_attribute 25, 1
  11              		.eabi_attribute 26, 1
  12              		.eabi_attribute 30, 4
  13              		.eabi_attribute 34, 1
  14              		.eabi_attribute 18, 4
  15              		.file	"main.c"
  16              		.text
  17              	.Ltext0:
  18              		.cfi_sections	.debug_frame
  19              		.file 1 "Core/Src/main.c"
  20              		.global	__aeabi_uldivmod
  21              		.global	__aeabi_ldivmod
  22              		.section	.text.calculate_mandelbrot_fixed_point_arithmetic,"ax",%progbits
  23              		.align	1
  24              		.global	calculate_mandelbrot_fixed_point_arithmetic
  25              		.syntax unified
  26              		.thumb
  27              		.thumb_func
  29              	calculate_mandelbrot_fixed_point_arithmetic:
  30              	.LVL0:
  31              	.LFB137:
   1:Core/Src/main.c **** /* USER CODE BEGIN Header */
   2:Core/Src/main.c **** /**
   3:Core/Src/main.c ****   ******************************************************************************
   4:Core/Src/main.c ****   * @file           : main.c
   5:Core/Src/main.c ****   * @brief          : Main program body
   6:Core/Src/main.c ****   ******************************************************************************
   7:Core/Src/main.c ****   * @attention
   8:Core/Src/main.c ****   *
   9:Core/Src/main.c ****   * Copyright (c) 2025 STMicroelectronics.
  10:Core/Src/main.c ****   * All rights reserved.
  11:Core/Src/main.c ****   *
  12:Core/Src/main.c ****   * This software is licensed under terms that can be found in the LICENSE file
  13:Core/Src/main.c ****   * in the root directory of this software component.
  14:Core/Src/main.c ****   * If no LICENSE file comes with this software, it is provided AS-IS.
  15:Core/Src/main.c ****   *
  16:Core/Src/main.c ****   ******************************************************************************
  17:Core/Src/main.c ****   */
  18:Core/Src/main.c **** /* USER CODE END Header */
  19:Core/Src/main.c **** /* Includes ------------------------------------------------------------------*/
  20:Core/Src/main.c **** #include "main.h"
  21:Core/Src/main.c **** 
  22:Core/Src/main.c **** /* Private includes ----------------------------------------------------------*/
  23:Core/Src/main.c **** /* USER CODE BEGIN Includes */
  24:Core/Src/main.c **** #include <stdint.h>
  25:Core/Src/main.c **** /* USER CODE END Includes */
  26:Core/Src/main.c **** 
  27:Core/Src/main.c **** /* Private typedef -----------------------------------------------------------*/
ARM GAS  C:\Users\User\AppData\Local\Temp\cciKCUxe.s 			page 2


  28:Core/Src/main.c **** /* USER CODE BEGIN PTD */
  29:Core/Src/main.c **** // #define MAX_ITER 1000  // Removed - now using array of values
  30:Core/Src/main.c **** /* USER CODE END PTD */
  31:Core/Src/main.c **** 
  32:Core/Src/main.c **** /* Private define ------------------------------------------------------------*/
  33:Core/Src/main.c **** /* USER CODE BEGIN PD */
  34:Core/Src/main.c **** 
  35:Core/Src/main.c **** /* USER CODE END PD */
  36:Core/Src/main.c **** 
  37:Core/Src/main.c **** /* Private macro -------------------------------------------------------------*/
  38:Core/Src/main.c **** /* USER CODE BEGIN PM */
  39:Core/Src/main.c **** 
  40:Core/Src/main.c **** /* USER CODE END PM */
  41:Core/Src/main.c **** 
  42:Core/Src/main.c **** /* Private variables ---------------------------------------------------------*/
  43:Core/Src/main.c **** 
  44:Core/Src/main.c **** /* USER CODE BEGIN PV */
  45:Core/Src/main.c **** //TODO: Define and initialise the global varibales required
  46:Core/Src/main.c **** /*
  47:Core/Src/main.c ****   start_time
  48:Core/Src/main.c ****   end_time
  49:Core/Src/main.c ****   execution_time
  50:Core/Src/main.c ****   checksum: should be uint64_t
  51:Core/Src/main.c ****   initial width and height maybe or you might opt for an array??
  52:Core/Src/main.c **** */
  53:Core/Src/main.c **** 
  54:Core/Src/main.c **** // Global variables for Task 1
  55:Core/Src/main.c **** // Image dimensions for testing (square images)
  56:Core/Src/main.c **** #define IMAGE_128 128
  57:Core/Src/main.c **** #define IMAGE_160 160
  58:Core/Src/main.c **** #define IMAGE_192 192
  59:Core/Src/main.c **** #define IMAGE_224 224
  60:Core/Src/main.c **** #define IMAGE_256 256
  61:Core/Src/main.c **** 
  62:Core/Src/main.c **** // Global checksum variable to hold the checksum returned from the mandelbrot function
  63:Core/Src/main.c **** uint64_t global_checksum;
  64:Core/Src/main.c **** 
  65:Core/Src/main.c **** uint32_t execution_time;
  66:Core/Src/main.c **** 
  67:Core/Src/main.c **** // Global start_time variable
  68:Core/Src/main.c **** uint32_t start_time;
  69:Core/Src/main.c **** 
  70:Core/Src/main.c **** // Global end_time variable
  71:Core/Src/main.c **** uint32_t end_time;
  72:Core/Src/main.c **** 
  73:Core/Src/main.c **** // DWT cycle counter variables
  74:Core/Src/main.c **** volatile uint32_t dwt_start_cycles;
  75:Core/Src/main.c **** volatile uint32_t dwt_end_cycles;
  76:Core/Src/main.c **** volatile uint32_t dwt_cycle_count;
  77:Core/Src/main.c **** 
  78:Core/Src/main.c **** // Extended measurement arrays
  79:Core/Src/main.c **** uint32_t wall_clock_fixed[5];     // Wall clock time for fixed-point
  80:Core/Src/main.c **** uint32_t wall_clock_double[5];    // Wall clock time for double
  81:Core/Src/main.c **** uint32_t cpu_cycles_fixed[5];     // CPU cycles for fixed-point
  82:Core/Src/main.c **** uint32_t cpu_cycles_double[5];    // CPU cycles for double
  83:Core/Src/main.c **** float throughput_fixed[5];        // Throughput for fixed-point
  84:Core/Src/main.c **** float throughput_double[5];       // Throughput for double
ARM GAS  C:\Users\User\AppData\Local\Temp\cciKCUxe.s 			page 3


  85:Core/Src/main.c **** uint32_t total_pixels[5];         // Total pixels for each size
  86:Core/Src/main.c **** uint64_t checksums_fixed[5];      // Checksums for fixed-point
  87:Core/Src/main.c **** uint64_t checksums_double[5];     // Checksums for double
  88:Core/Src/main.c **** 
  89:Core/Src/main.c **** // Image sizes array
  90:Core/Src/main.c **** int image_sizes[] = {IMAGE_128, IMAGE_160, IMAGE_192, IMAGE_224, IMAGE_256};
  91:Core/Src/main.c **** int num_sizes = 5;
  92:Core/Src/main.c **** int max_iterations = 100;  // Fixed MAX_ITER = 100
  93:Core/Src/main.c **** 
  94:Core/Src/main.c **** // Global counter for current test
  95:Core/Src/main.c **** int current_test_index = 0;
  96:Core/Src/main.c **** 
  97:Core/Src/main.c **** // Task 7: Fixed-point scaling factor testing
  98:Core/Src/main.c **** // Scaling factors to test: 10^3, 10^4, 10^6
  99:Core/Src/main.c **** int64_t scaling_factors[3] = {1000, 10000, 1000000};  // 10^3, 10^4, 10^6
 100:Core/Src/main.c **** char* scaling_names[3] = {"10^3", "10^4", "10^6"};
 101:Core/Src/main.c **** 
 102:Core/Src/main.c **** // Results for each scaling factor (15 total tests: 3 scaling factors × 5 image sizes)
 103:Core/Src/main.c **** uint32_t task7_execution_times[15];    // 15 total tests
 104:Core/Src/main.c **** uint64_t task7_checksums[15];          // 15 total tests
 105:Core/Src/main.c **** uint32_t task7_overflow_counts[15];    // 15 total tests
 106:Core/Src/main.c **** 
 107:Core/Src/main.c **** // Image sizes from Practical 1B (using image_sizes array)
 108:Core/Src/main.c **** int task7_image_sizes[5] = {128, 160, 192, 224, 256};
 109:Core/Src/main.c **** 
 110:Core/Src/main.c **** // Task 7 test counter
 111:Core/Src/main.c **** int task7_test_index = 0;
 112:Core/Src/main.c **** 
 113:Core/Src/main.c **** // Task 4: Image splitting and processing variables
 114:Core/Src/main.c **** // Image dimensions for Task 4: 520x520, 1280x720, 1920x1080
 115:Core/Src/main.c **** int task4_image_widths[3] = {520, 1280, 1920};
 116:Core/Src/main.c **** int task4_image_heights[3] = {520, 720, 1080};
 117:Core/Src/main.c **** 
 118:Core/Src/main.c **** // Execution times for Task 4 (wall clock time)
 119:Core/Src/main.c **** uint32_t task4_wall_clock_fixed[3];
 120:Core/Src/main.c **** uint32_t task4_wall_clock_double[3];
 121:Core/Src/main.c **** 
 122:Core/Src/main.c **** // CPU cycles for Task 4
 123:Core/Src/main.c **** uint32_t task4_cpu_cycles_fixed[3];
 124:Core/Src/main.c **** uint32_t task4_cpu_cycles_double[3];
 125:Core/Src/main.c **** 
 126:Core/Src/main.c **** // Throughput for Task 4
 127:Core/Src/main.c **** float task4_throughput_fixed[3];
 128:Core/Src/main.c **** float task4_throughput_double[3];
 129:Core/Src/main.c **** 
 130:Core/Src/main.c **** // Checksums for Task 4
 131:Core/Src/main.c **** uint64_t task4_checksums_fixed[3];
 132:Core/Src/main.c **** uint64_t task4_checksums_double[3];
 133:Core/Src/main.c **** 
 134:Core/Src/main.c **** // Chunking parameters
 135:Core/Src/main.c **** #define MAX_CHUNK_SIZE 128  // 128x128 chunks for STM32F4 (more memory than F0)
 136:Core/Src/main.c **** #define CHUNK_OVERLAP 0     // No overlap needed for Mandelbrot
 137:Core/Src/main.c **** 
 138:Core/Src/main.c **** // Chunk processing counters
 139:Core/Src/main.c **** uint32_t total_chunks_processed = 0;
 140:Core/Src/main.c **** uint32_t current_chunk_x = 0;
 141:Core/Src/main.c **** uint32_t current_chunk_y = 0;
ARM GAS  C:\Users\User\AppData\Local\Temp\cciKCUxe.s 			page 4


 142:Core/Src/main.c **** 
 143:Core/Src/main.c **** /* USER CODE END PV */
 144:Core/Src/main.c **** 
 145:Core/Src/main.c **** /* Private function prototypes -----------------------------------------------*/
 146:Core/Src/main.c **** void SystemClock_Config(void);
 147:Core/Src/main.c **** static void MX_GPIO_Init(void);
 148:Core/Src/main.c **** /* USER CODE BEGIN PFP */
 149:Core/Src/main.c **** uint64_t calculate_mandelbrot_fixed_point_arithmetic(int width, int height, int max_iterations);
 150:Core/Src/main.c **** uint64_t calculate_mandelbrot_double(int width, int height, int max_iterations);
 151:Core/Src/main.c **** void MX_DWT_Init(void);
 152:Core/Src/main.c **** 
 153:Core/Src/main.c **** // Task 4 function prototypes
 154:Core/Src/main.c **** void process_image_in_chunks(int full_width, int full_height, int max_iter, 
 155:Core/Src/main.c ****                             uint64_t (*mandelbrot_func)(int, int, int),
 156:Core/Src/main.c ****                             uint32_t *wall_clock, uint32_t *cpu_cycles, 
 157:Core/Src/main.c ****                             float *throughput, uint64_t *total_checksum);
 158:Core/Src/main.c **** uint64_t calculate_mandelbrot_chunk(int chunk_x, int chunk_y, int chunk_width, int chunk_height,
 159:Core/Src/main.c ****                                    int full_width, int full_height, int max_iter,
 160:Core/Src/main.c ****                                    uint64_t (*mandelbrot_func)(int, int, int));
 161:Core/Src/main.c **** uint64_t calculate_single_pixel_mandelbrot_fixed(int x, int y, int width, int height, int max_iter)
 162:Core/Src/main.c **** uint64_t calculate_single_pixel_mandelbrot_double(int x, int y, int width, int height, int max_iter
 163:Core/Src/main.c **** void reset_chunk_counters(void);
 164:Core/Src/main.c **** 
 165:Core/Src/main.c **** // Task 7 function prototypes
 166:Core/Src/main.c **** uint64_t calculate_mandelbrot_fixed_point_with_scale(int width, int height, int max_iter, int64_t s
 167:Core/Src/main.c **** void test_scaling_factors(void);
 168:Core/Src/main.c **** void analyze_scaling_results(void);
 169:Core/Src/main.c **** 
 170:Core/Src/main.c **** 
 171:Core/Src/main.c **** /* USER CODE END PFP */
 172:Core/Src/main.c **** 
 173:Core/Src/main.c **** /* Private user code ---------------------------------------------------------*/
 174:Core/Src/main.c **** /* USER CODE BEGIN 0 */
 175:Core/Src/main.c **** 
 176:Core/Src/main.c **** /* USER CODE END 0 */
 177:Core/Src/main.c **** 
 178:Core/Src/main.c **** /**
 179:Core/Src/main.c ****   * @brief  The application entry point.
 180:Core/Src/main.c ****   * @retval int
 181:Core/Src/main.c ****   */
 182:Core/Src/main.c ****   int main(void)
 183:Core/Src/main.c ****   {
 184:Core/Src/main.c ****     /* USER CODE BEGIN 1 */
 185:Core/Src/main.c **** 
 186:Core/Src/main.c ****     /* USER CODE END 1 */
 187:Core/Src/main.c **** 
 188:Core/Src/main.c ****     /* MCU Configuration--------------------------------------------------------*/
 189:Core/Src/main.c **** 
 190:Core/Src/main.c ****     /* Reset of all peripherals, Initializes the Flash interface and the Systick. */
 191:Core/Src/main.c ****     HAL_Init();
 192:Core/Src/main.c **** 
 193:Core/Src/main.c ****     /* USER CODE BEGIN Init */
 194:Core/Src/main.c **** 
 195:Core/Src/main.c ****     /* USER CODE END Init */
 196:Core/Src/main.c **** 
 197:Core/Src/main.c ****     /* Configure the system clock */
 198:Core/Src/main.c ****     SystemClock_Config();
ARM GAS  C:\Users\User\AppData\Local\Temp\cciKCUxe.s 			page 5


 199:Core/Src/main.c **** 
 200:Core/Src/main.c ****     /* USER CODE BEGIN SysInit */
 201:Core/Src/main.c **** 
 202:Core/Src/main.c ****     /* USER CODE END SysInit */
 203:Core/Src/main.c **** 
 204:Core/Src/main.c ****     /* Initialize all configured peripherals */
 205:Core/Src/main.c ****     MX_GPIO_Init();
 206:Core/Src/main.c ****     /* USER CODE BEGIN 2 */
 207:Core/Src/main.c **** 
 208:Core/Src/main.c ****     // Initialize DWT cycle counter
 209:Core/Src/main.c ****     MX_DWT_Init();
 210:Core/Src/main.c **** 
 211:Core/Src/main.c ****     // Test all image sizes with MAX_ITER = 100
 212:Core/Src/main.c ****     for (int i = 0; i < num_sizes; i++) {
 213:Core/Src/main.c ****         current_test_index = i;
 214:Core/Src/main.c ****         int test_size = image_sizes[i];
 215:Core/Src/main.c ****         total_pixels[i] = test_size * test_size;  // Calculate total pixels
 216:Core/Src/main.c **** 
 217:Core/Src/main.c ****         // Test 1: Fixed Point Arithmetic
 218:Core/Src/main.c ****         // Turn on LED 0 to signify the start of the operation
 219:Core/Src/main.c ****         HAL_GPIO_WritePin(GPIOB, GPIO_PIN_0, GPIO_PIN_SET);
 220:Core/Src/main.c **** 
 221:Core/Src/main.c ****         // Wall clock time measurement
 222:Core/Src/main.c ****         start_time = HAL_GetTick();
 223:Core/Src/main.c **** 
 224:Core/Src/main.c ****         // Call the Mandelbrot Function
 225:Core/Src/main.c ****         global_checksum = calculate_mandelbrot_fixed_point_arithmetic(test_size, test_size, max_ite
 226:Core/Src/main.c **** 
 227:Core/Src/main.c ****         // End measurements
 228:Core/Src/main.c ****         end_time = HAL_GetTick();
 229:Core/Src/main.c **** 
 230:Core/Src/main.c ****         // Calculate and store results
 231:Core/Src/main.c ****         execution_time = end_time - start_time;
 232:Core/Src/main.c ****         wall_clock_fixed[i] = execution_time;
 233:Core/Src/main.c ****         // cpu_cycles_fixed[i] = dwt_cycle_count;  // Commented out - no cycle counting
 234:Core/Src/main.c ****         checksums_fixed[i] = global_checksum;
 235:Core/Src/main.c ****         // throughput_fixed[i] = (float)total_pixels[i] / (execution_time / 1000.0f);  // Commented
 236:Core/Src/main.c **** 
 237:Core/Src/main.c ****         // Turn on LED 1 to signify the end of the operation
 238:Core/Src/main.c ****         HAL_GPIO_WritePin(GPIOB, GPIO_PIN_1, GPIO_PIN_SET);
 239:Core/Src/main.c **** 
 240:Core/Src/main.c ****         // Hold the LEDs on for a 1s delay
 241:Core/Src/main.c ****         HAL_Delay(1000);
 242:Core/Src/main.c **** 
 243:Core/Src/main.c ****         // Turn off the LEDs
 244:Core/Src/main.c ****         HAL_GPIO_WritePin(GPIOB, GPIO_PIN_0, GPIO_PIN_RESET);
 245:Core/Src/main.c ****         HAL_GPIO_WritePin(GPIOB, GPIO_PIN_1, GPIO_PIN_RESET);
 246:Core/Src/main.c **** 
 247:Core/Src/main.c ****         // Test 2: Double Arithmetic - COMMENTED OUT
 248:Core/Src/main.c ****         /*
 249:Core/Src/main.c ****         // Turn on LED 0 to signify the start of the second operation
 250:Core/Src/main.c ****         HAL_GPIO_WritePin(GPIOB, GPIO_PIN_0, GPIO_PIN_SET);
 251:Core/Src/main.c **** 
 252:Core/Src/main.c ****         // Wall clock time measurement
 253:Core/Src/main.c ****         start_time = HAL_GetTick();
 254:Core/Src/main.c **** 
 255:Core/Src/main.c ****         // Call the Mandelbrot Function
ARM GAS  C:\Users\User\AppData\Local\Temp\cciKCUxe.s 			page 6


 256:Core/Src/main.c ****         global_checksum = calculate_mandelbrot_double(test_size, test_size, max_iterations);
 257:Core/Src/main.c **** 
 258:Core/Src/main.c ****         // End measurements
 259:Core/Src/main.c ****         end_time = HAL_GetTick();
 260:Core/Src/main.c **** 
 261:Core/Src/main.c ****         // Calculate and store results
 262:Core/Src/main.c ****         execution_time = end_time - start_time;
 263:Core/Src/main.c ****         wall_clock_double[i] = execution_time;
 264:Core/Src/main.c ****         // cpu_cycles_double[i] = dwt_cycle_count;  // Commented out - no cycle counting
 265:Core/Src/main.c ****         checksums_double[i] = global_checksum;
 266:Core/Src/main.c ****         // throughput_double[i] = (float)total_pixels[i] / (execution_time / 1000.0f);  // Commente
 267:Core/Src/main.c **** 
 268:Core/Src/main.c ****         // Turn on LED 1 to signify the end of the operation
 269:Core/Src/main.c ****         HAL_GPIO_WritePin(GPIOB, GPIO_PIN_1, GPIO_PIN_SET);
 270:Core/Src/main.c **** 
 271:Core/Src/main.c ****         // Hold the LEDs on for a 1s delay
 272:Core/Src/main.c ****         HAL_Delay(1000);
 273:Core/Src/main.c **** 
 274:Core/Src/main.c ****         // Turn off the LEDs
 275:Core/Src/main.c ****         HAL_GPIO_WritePin(GPIOB, GPIO_PIN_0, GPIO_PIN_RESET);
 276:Core/Src/main.c ****         HAL_GPIO_WritePin(GPIOB, GPIO_PIN_1, GPIO_PIN_RESET);
 277:Core/Src/main.c ****         */
 278:Core/Src/main.c **** 
 279:Core/Src/main.c ****         // Small delay between different image sizes
 280:Core/Src/main.c ****         HAL_Delay(500);
 281:Core/Src/main.c ****     }
 282:Core/Src/main.c ****     
 283:Core/Src/main.c ****     // Task 4: Large image processing with chunking
 284:Core/Src/main.c ****     // Process images: 520x520, 1280x720, 1920x1080
 285:Core/Src/main.c ****     /*
 286:Core/Src/main.c ****     for (int task4_test = 0; task4_test < 3; task4_test++) {
 287:Core/Src/main.c ****         int current_width = task4_image_widths[task4_test];
 288:Core/Src/main.c ****         int current_height = task4_image_heights[task4_test];
 289:Core/Src/main.c ****         
 290:Core/Src/main.c ****         // Test Fixed Point Arithmetic
 291:Core/Src/main.c ****         HAL_GPIO_WritePin(GPIOB, GPIO_PIN_0, GPIO_PIN_SET);
 292:Core/Src/main.c ****         
 293:Core/Src/main.c ****         process_image_in_chunks(current_width, current_height, max_iterations,
 294:Core/Src/main.c ****                                calculate_mandelbrot_fixed_point_arithmetic,
 295:Core/Src/main.c ****                                &task4_wall_clock_fixed[task4_test],
 296:Core/Src/main.c ****                                &task4_cpu_cycles_fixed[task4_test],
 297:Core/Src/main.c ****                                &task4_throughput_fixed[task4_test],
 298:Core/Src/main.c ****                                &task4_checksums_fixed[task4_test]);
 299:Core/Src/main.c ****         
 300:Core/Src/main.c ****         HAL_GPIO_WritePin(GPIOB, GPIO_PIN_0, GPIO_PIN_RESET);
 301:Core/Src/main.c ****         HAL_Delay(500);
 302:Core/Src/main.c ****         
 303:Core/Src/main.c ****         // Test Double Arithmetic
 304:Core/Src/main.c ****         HAL_GPIO_WritePin(GPIOB, GPIO_PIN_1, GPIO_PIN_SET);
 305:Core/Src/main.c ****         
 306:Core/Src/main.c ****         process_image_in_chunks(current_width, current_height, max_iterations,
 307:Core/Src/main.c ****                                calculate_mandelbrot_double,
 308:Core/Src/main.c ****                                &task4_wall_clock_double[task4_test],
 309:Core/Src/main.c ****                                &task4_cpu_cycles_double[task4_test],
 310:Core/Src/main.c ****                                &task4_throughput_double[task4_test],
 311:Core/Src/main.c ****                                &task4_checksums_double[task4_test]);
 312:Core/Src/main.c ****         
ARM GAS  C:\Users\User\AppData\Local\Temp\cciKCUxe.s 			page 7


 313:Core/Src/main.c ****         HAL_GPIO_WritePin(GPIOB, GPIO_PIN_1, GPIO_PIN_RESET);
 314:Core/Src/main.c ****         HAL_Delay(500);
 315:Core/Src/main.c ****     }
 316:Core/Src/main.c ****     
 317:Core/Src/main.c ****     // All Task 4 tests completed - turn on both LEDs to indicate completion
 318:Core/Src/main.c ****     HAL_GPIO_WritePin(GPIOB, GPIO_PIN_0, GPIO_PIN_SET);
 319:Core/Src/main.c ****     HAL_GPIO_WritePin(GPIOB, GPIO_PIN_1, GPIO_PIN_SET);
 320:Core/Src/main.c ****     
 321:Core/Src/main.c ****     // Hold the LEDs on for 3s to show Task 4 completion
 322:Core/Src/main.c ****     HAL_Delay(3000);
 323:Core/Src/main.c ****     
 324:Core/Src/main.c ****     // Turn off the LEDs
 325:Core/Src/main.c ****     HAL_GPIO_WritePin(GPIOB, GPIO_PIN_0, GPIO_PIN_RESET);
 326:Core/Src/main.c ****     HAL_GPIO_WritePin(GPIOB, GPIO_PIN_1, GPIO_PIN_RESET);
 327:Core/Src/main.c ****     */
 328:Core/Src/main.c ****     
 329:Core/Src/main.c ****     // Task 7: Fixed-point scaling factor testing
 330:Core/Src/main.c ****     // Test scaling factors: 10^3, 10^4, 10^6
 331:Core/Src/main.c ****     HAL_GPIO_WritePin(GPIOB, GPIO_PIN_1, GPIO_PIN_SET);  // Indicate Task 7 start
 332:Core/Src/main.c ****     test_scaling_factors();
 333:Core/Src/main.c ****     analyze_scaling_results();
 334:Core/Src/main.c ****     HAL_GPIO_WritePin(GPIOB, GPIO_PIN_1, GPIO_PIN_RESET);
 335:Core/Src/main.c ****     
 336:Core/Src/main.c ****     // All Task 7 tests completed - turn on both LEDs to indicate completion
 337:Core/Src/main.c ****     HAL_GPIO_WritePin(GPIOB, GPIO_PIN_0, GPIO_PIN_SET);
 338:Core/Src/main.c ****     HAL_GPIO_WritePin(GPIOB, GPIO_PIN_1, GPIO_PIN_SET);
 339:Core/Src/main.c ****     
 340:Core/Src/main.c ****     // Hold the LEDs on for 3s to show Task 7 completion
 341:Core/Src/main.c ****     HAL_Delay(3000);
 342:Core/Src/main.c ****     
 343:Core/Src/main.c ****     // Turn off the LEDs
 344:Core/Src/main.c ****     HAL_GPIO_WritePin(GPIOB, GPIO_PIN_0, GPIO_PIN_RESET);
 345:Core/Src/main.c ****     HAL_GPIO_WritePin(GPIOB, GPIO_PIN_1, GPIO_PIN_RESET);
 346:Core/Src/main.c **** 
 347:Core/Src/main.c ****     /* USER CODE END 2 */
 348:Core/Src/main.c **** 
 349:Core/Src/main.c ****     /* Infinite loop */
 350:Core/Src/main.c ****     /* USER CODE BEGIN WHILE */
 351:Core/Src/main.c ****     while (1)
 352:Core/Src/main.c ****     {
 353:Core/Src/main.c ****       /* USER CODE END WHILE */
 354:Core/Src/main.c **** 
 355:Core/Src/main.c ****       /* USER CODE BEGIN 3 */
 356:Core/Src/main.c ****     }
 357:Core/Src/main.c ****     /* USER CODE END 3 */
 358:Core/Src/main.c ****   }
 359:Core/Src/main.c **** 
 360:Core/Src/main.c **** /**
 361:Core/Src/main.c ****   * @brief System Clock Configuration
 362:Core/Src/main.c ****   * @retval None
 363:Core/Src/main.c ****   */
 364:Core/Src/main.c **** void SystemClock_Config(void)
 365:Core/Src/main.c **** {
 366:Core/Src/main.c ****   RCC_OscInitTypeDef RCC_OscInitStruct = {0};
 367:Core/Src/main.c ****   RCC_ClkInitTypeDef RCC_ClkInitStruct = {0};
 368:Core/Src/main.c **** 
 369:Core/Src/main.c ****   /** Initializes the RCC Oscillators according to the specified parameters
ARM GAS  C:\Users\User\AppData\Local\Temp\cciKCUxe.s 			page 8


 370:Core/Src/main.c ****   * in the RCC_OscInitTypeDef structure.
 371:Core/Src/main.c ****   */
 372:Core/Src/main.c ****   RCC_OscInitStruct.OscillatorType = RCC_OSCILLATORTYPE_HSI;
 373:Core/Src/main.c ****   RCC_OscInitStruct.HSIState = RCC_HSI_ON;
 374:Core/Src/main.c ****   RCC_OscInitStruct.HSICalibrationValue = RCC_HSICALIBRATION_DEFAULT;
 375:Core/Src/main.c ****   RCC_OscInitStruct.PLL.PLLState = RCC_PLL_NONE;
 376:Core/Src/main.c ****   if (HAL_RCC_OscConfig(&RCC_OscInitStruct) != HAL_OK)
 377:Core/Src/main.c ****   {
 378:Core/Src/main.c ****     Error_Handler();
 379:Core/Src/main.c ****   }
 380:Core/Src/main.c **** 
 381:Core/Src/main.c ****   /** Initializes the CPU, AHB and APB buses clocks
 382:Core/Src/main.c ****   */
 383:Core/Src/main.c ****   RCC_ClkInitStruct.ClockType = RCC_CLOCKTYPE_HCLK|RCC_CLOCKTYPE_SYSCLK
 384:Core/Src/main.c ****                               |RCC_CLOCKTYPE_PCLK1;
 385:Core/Src/main.c ****   RCC_ClkInitStruct.SYSCLKSource = RCC_SYSCLKSOURCE_HSI;
 386:Core/Src/main.c ****   RCC_ClkInitStruct.AHBCLKDivider = RCC_SYSCLK_DIV1;
 387:Core/Src/main.c ****   RCC_ClkInitStruct.APB1CLKDivider = RCC_HCLK_DIV1;
 388:Core/Src/main.c **** 
 389:Core/Src/main.c ****   if (HAL_RCC_ClockConfig(&RCC_ClkInitStruct, FLASH_LATENCY_0) != HAL_OK)
 390:Core/Src/main.c ****   {
 391:Core/Src/main.c ****     Error_Handler();
 392:Core/Src/main.c ****   }
 393:Core/Src/main.c **** }
 394:Core/Src/main.c **** 
 395:Core/Src/main.c **** /**
 396:Core/Src/main.c ****   * @brief GPIO Initialization Function
 397:Core/Src/main.c ****   * @param None
 398:Core/Src/main.c ****   * @retval None
 399:Core/Src/main.c ****   */
 400:Core/Src/main.c **** static void MX_GPIO_Init(void)
 401:Core/Src/main.c **** {
 402:Core/Src/main.c ****   GPIO_InitTypeDef GPIO_InitStruct = {0};
 403:Core/Src/main.c **** /* USER CODE BEGIN MX_GPIO_Init_1 */
 404:Core/Src/main.c **** /* USER CODE END MX_GPIO_Init_1 */
 405:Core/Src/main.c **** 
 406:Core/Src/main.c ****   /* GPIO Ports Clock Enable */
 407:Core/Src/main.c ****   __HAL_RCC_GPIOB_CLK_ENABLE();
 408:Core/Src/main.c ****   __HAL_RCC_GPIOA_CLK_ENABLE();
 409:Core/Src/main.c **** 
 410:Core/Src/main.c ****   /*Configure GPIO pin Output Level */
 411:Core/Src/main.c ****   HAL_GPIO_WritePin(GPIOB, GPIO_PIN_0|GPIO_PIN_1, GPIO_PIN_RESET);
 412:Core/Src/main.c **** 
 413:Core/Src/main.c ****   /*Configure GPIO pins : PB0 PB1 */
 414:Core/Src/main.c ****   GPIO_InitStruct.Pin = GPIO_PIN_0|GPIO_PIN_1;
 415:Core/Src/main.c ****   GPIO_InitStruct.Mode = GPIO_MODE_OUTPUT_PP;
 416:Core/Src/main.c ****   GPIO_InitStruct.Pull = GPIO_NOPULL;
 417:Core/Src/main.c ****   GPIO_InitStruct.Speed = GPIO_SPEED_FREQ_LOW;
 418:Core/Src/main.c ****   HAL_GPIO_Init(GPIOB, &GPIO_InitStruct);
 419:Core/Src/main.c **** 
 420:Core/Src/main.c **** /* USER CODE BEGIN MX_GPIO_Init_2 */
 421:Core/Src/main.c **** /* USER CODE END MX_GPIO_Init_2 */
 422:Core/Src/main.c **** }
 423:Core/Src/main.c **** 
 424:Core/Src/main.c **** /* USER CODE BEGIN 4 */
 425:Core/Src/main.c **** //TODO: Mandelbroat using variable type integers and fixed point arithmetic
 426:Core/Src/main.c **** uint64_t calculate_mandelbrot_fixed_point_arithmetic(int width, int height, int max_iterations){
ARM GAS  C:\Users\User\AppData\Local\Temp\cciKCUxe.s 			page 9


  32              		.loc 1 426 96 view -0
  33              		.cfi_startproc
  34              		@ args = 0, pretend = 0, frame = 56
  35              		@ frame_needed = 0, uses_anonymous_args = 0
 427:Core/Src/main.c ****   uint64_t mandelbrot_sum = 0;
  36              		.loc 1 427 3 view .LVU1
 428:Core/Src/main.c ****     //TODO: Complete the function implementation
 429:Core/Src/main.c **** 
 430:Core/Src/main.c ****   // Fixed-point scaling factor (10^6 as suggested in Appendix B)
 431:Core/Src/main.c ****   const int64_t SCALE = 1000000;
  37              		.loc 1 431 3 view .LVU2
 432:Core/Src/main.c **** 
 433:Core/Src/main.c ****   // Pre-calculate scaled constants
 434:Core/Src/main.c ****   int64_t scaled_3_5 = 3 * SCALE + (5 * SCALE) / 10;  // 3.5 * SCALE
  38              		.loc 1 434 3 view .LVU3
 435:Core/Src/main.c ****   int64_t scaled_2_0 = 2 * SCALE;                      // 2.0 * SCALE
  39              		.loc 1 435 3 view .LVU4
 436:Core/Src/main.c ****   int64_t scaled_2_5 = 2 * SCALE + (5 * SCALE) / 10;  // 2.5 * SCALE
  40              		.loc 1 436 3 view .LVU5
 437:Core/Src/main.c ****   int64_t scaled_1_0 = SCALE;                          // 1.0 * SCALE
  41              		.loc 1 437 3 view .LVU6
 438:Core/Src/main.c ****   int64_t scaled_4 = 4 * SCALE;                        // 4 * SCALE
  42              		.loc 1 438 3 view .LVU7
 439:Core/Src/main.c ****   int64_t scaled_2 = 2 * SCALE;                        // 2 * SCALE
  43              		.loc 1 439 3 view .LVU8
 440:Core/Src/main.c **** 
 441:Core/Src/main.c ****   // Loop through each pixel (y coordinate)
 442:Core/Src/main.c ****   for (int y = 0; y < height; y++) {
  44              		.loc 1 442 3 view .LVU9
  45              	.LBB16:
  46              		.loc 1 442 8 view .LVU10
  47              		.loc 1 442 8 is_stmt 0 view .LVU11
  48              	.LBE16:
 426:Core/Src/main.c ****   uint64_t mandelbrot_sum = 0;
  49              		.loc 1 426 96 view .LVU12
  50 0000 2DE9F04F 		push	{r4, r5, r6, r7, r8, r9, r10, fp, lr}
  51              	.LCFI0:
  52              		.cfi_def_cfa_offset 36
  53              		.cfi_offset 4, -36
  54              		.cfi_offset 5, -32
  55              		.cfi_offset 6, -28
  56              		.cfi_offset 7, -24
  57              		.cfi_offset 8, -20
  58              		.cfi_offset 9, -16
  59              		.cfi_offset 10, -12
  60              		.cfi_offset 11, -8
  61              		.cfi_offset 14, -4
  62              	.LBB22:
  63              		.loc 1 442 3 view .LVU13
  64 0004 4FF00008 		mov	r8, #0
  65              	.LBE22:
 426:Core/Src/main.c ****   uint64_t mandelbrot_sum = 0;
  66              		.loc 1 426 96 view .LVU14
  67 0008 8FB0     		sub	sp, sp, #60
  68              	.LCFI1:
  69              		.cfi_def_cfa_offset 96
 426:Core/Src/main.c ****   uint64_t mandelbrot_sum = 0;
ARM GAS  C:\Users\User\AppData\Local\Temp\cciKCUxe.s 			page 10


  70              		.loc 1 426 96 view .LVU15
  71 000a CDE90201 		strd	r0, r1, [sp, #8]
 427:Core/Src/main.c ****     //TODO: Complete the function implementation
  72              		.loc 1 427 12 view .LVU16
  73 000e CDE90688 		strd	r8, r8, [sp, #24]
 426:Core/Src/main.c ****   uint64_t mandelbrot_sum = 0;
  74              		.loc 1 426 96 view .LVU17
  75 0012 0992     		str	r2, [sp, #36]
  76              	.LBB23:
  77              		.loc 1 442 3 view .LVU18
  78 0014 CDF81480 		str	r8, [sp, #20]
  79              		.loc 1 442 12 view .LVU19
  80 0018 CDF80080 		str	r8, [sp]
  81              	.LVL1:
  82              	.L2:
  83              		.loc 1 442 21 is_stmt 1 discriminator 1 view .LVU20
  84 001c 009B     		ldr	r3, [sp]
  85 001e 039A     		ldr	r2, [sp, #12]
  86 0020 9342     		cmp	r3, r2
  87 0022 80F28F80 		bge	.L1
  88 0026 4FF0000B 		mov	fp, #0
  89 002a CDF810B0 		str	fp, [sp, #16]
  90              	.LBB17:
 443:Core/Src/main.c ****     // Loop through each pixel (x coordinate)
 444:Core/Src/main.c ****     for (int x = 0; x < width; x++) {
  91              		.loc 1 444 14 is_stmt 0 view .LVU21
  92 002e CDF804B0 		str	fp, [sp, #4]
  93 0032 32E0     		b	.L5
  94              	.LVL2:
  95              	.L8:
  96              	.LBB18:
 445:Core/Src/main.c ****       // Calculate x0 = (x / width) * 3.5 - 2.5
 446:Core/Src/main.c ****       int64_t x0 = ((x * scaled_3_5) / width) - scaled_2_5;
  97              		.loc 1 446 7 is_stmt 1 view .LVU22
  98              		.loc 1 446 38 is_stmt 0 view .LVU23
  99 0034 029A     		ldr	r2, [sp, #8]
 100 0036 0499     		ldr	r1, [sp, #16]
 101 0038 D317     		asrs	r3, r2, #31
 102              	.LVL3:
 103              		.loc 1 446 38 view .LVU24
 104 003a 5846     		mov	r0, fp
 105 003c FFF7FEFF 		bl	__aeabi_ldivmod
 106              	.LVL4:
 107              		.loc 1 446 15 view .LVU25
 108 0040 434B     		ldr	r3, .L10
 447:Core/Src/main.c **** 
 448:Core/Src/main.c ****       // Calculate y0 = (y / height) * 2.0 - 1.0
 449:Core/Src/main.c ****       int64_t y0 = ((y * scaled_2_0) / height) - scaled_1_0;
 109              		.loc 1 449 38 view .LVU26
 110 0042 039A     		ldr	r2, [sp, #12]
 446:Core/Src/main.c **** 
 111              		.loc 1 446 15 view .LVU27
 112 0044 C318     		adds	r3, r0, r3
 113 0046 0A93     		str	r3, [sp, #40]
 114 0048 61F10003 		sbc	r3, r1, #0
 115 004c 0B93     		str	r3, [sp, #44]
 116              	.LVL5:
ARM GAS  C:\Users\User\AppData\Local\Temp\cciKCUxe.s 			page 11


 117              		.loc 1 449 7 is_stmt 1 view .LVU28
 118              		.loc 1 449 38 is_stmt 0 view .LVU29
 119 004e 0599     		ldr	r1, [sp, #20]
 120 0050 D317     		asrs	r3, r2, #31
 121              	.LVL6:
 122              		.loc 1 449 38 view .LVU30
 123 0052 4046     		mov	r0, r8
 124 0054 FFF7FEFF 		bl	__aeabi_ldivmod
 125              	.LVL7:
 126              		.loc 1 449 15 view .LVU31
 127 0058 3E4B     		ldr	r3, .L10+4
 128 005a C318     		adds	r3, r0, r3
 450:Core/Src/main.c **** 
 451:Core/Src/main.c ****       // Initialize iteration variables
 452:Core/Src/main.c ****       int64_t xi = 0;
 453:Core/Src/main.c ****       int64_t yi = 0;
 454:Core/Src/main.c ****       int iteration = 0;
 129              		.loc 1 454 11 view .LVU32
 130 005c 4FF00007 		mov	r7, #0
 449:Core/Src/main.c **** 
 131              		.loc 1 449 15 view .LVU33
 132 0060 0C93     		str	r3, [sp, #48]
 133 0062 61F10003 		sbc	r3, r1, #0
 134 0066 0D93     		str	r3, [sp, #52]
 135              	.LVL8:
 452:Core/Src/main.c ****       int64_t yi = 0;
 136              		.loc 1 452 7 is_stmt 1 view .LVU34
 453:Core/Src/main.c ****       int iteration = 0;
 137              		.loc 1 453 7 view .LVU35
 138              		.loc 1 454 7 view .LVU36
 455:Core/Src/main.c **** 
 456:Core/Src/main.c ****       // Main iteration loop
 457:Core/Src/main.c ****       while (iteration < max_iterations &&
 139              		.loc 1 457 7 view .LVU37
 453:Core/Src/main.c ****       int iteration = 0;
 140              		.loc 1 453 15 is_stmt 0 view .LVU38
 141 0068 3D46     		mov	r5, r7
 142 006a 3E46     		mov	r6, r7
 452:Core/Src/main.c ****       int64_t yi = 0;
 143              		.loc 1 452 15 view .LVU39
 144 006c 3846     		mov	r0, r7
 145 006e 3946     		mov	r1, r7
 146              	.LVL9:
 147              	.L3:
 148              		.loc 1 457 41 is_stmt 1 view .LVU40
 149 0070 099B     		ldr	r3, [sp, #36]
 150 0072 9F42     		cmp	r7, r3
 151 0074 21DB     		blt	.L4
 152              	.L7:
 458:Core/Src/main.c ****          ((xi * xi + yi * yi) <= scaled_4)) {
 459:Core/Src/main.c **** 
 460:Core/Src/main.c ****         // temp = xi^2 - yi^2
 461:Core/Src/main.c ****         int64_t temp = ((xi * xi) / SCALE) - ((yi * yi) / SCALE);
 462:Core/Src/main.c **** 
 463:Core/Src/main.c ****         // yi = 2 * xi * yi + y0
 464:Core/Src/main.c ****         yi = ((scaled_2 * xi * yi) / SCALE) + y0;
 465:Core/Src/main.c **** 
ARM GAS  C:\Users\User\AppData\Local\Temp\cciKCUxe.s 			page 12


 466:Core/Src/main.c ****         // xi = temp + x0
 467:Core/Src/main.c ****         xi = temp + x0;
 468:Core/Src/main.c **** 
 469:Core/Src/main.c ****         iteration++;
 470:Core/Src/main.c ****       }
 471:Core/Src/main.c **** 
 472:Core/Src/main.c ****       // Add iteration count to checksum
 473:Core/Src/main.c ****       mandelbrot_sum += iteration;
 153              		.loc 1 473 7 view .LVU41
 154              		.loc 1 473 22 is_stmt 0 view .LVU42
 155 0076 069B     		ldr	r3, [sp, #24]
 156 0078 FB18     		adds	r3, r7, r3
 157 007a 0693     		str	r3, [sp, #24]
 158              	.LVL10:
 159              		.loc 1 473 22 view .LVU43
 160 007c 079B     		ldr	r3, [sp, #28]
 161 007e 43EBE773 		adc	r3, r3, r7, asr #31
 162 0082 0793     		str	r3, [sp, #28]
 163              	.LVL11:
 164              		.loc 1 473 22 view .LVU44
 165              	.LBE18:
 444:Core/Src/main.c ****       // Calculate x0 = (x / width) * 3.5 - 2.5
 166              		.loc 1 444 33 is_stmt 1 discriminator 2 view .LVU45
 167 0084 019B     		ldr	r3, [sp, #4]
 168              	.LVL12:
 444:Core/Src/main.c ****       // Calculate x0 = (x / width) * 3.5 - 2.5
 169              		.loc 1 444 33 is_stmt 0 discriminator 2 view .LVU46
 170 0086 0133     		adds	r3, r3, #1
 171 0088 0193     		str	r3, [sp, #4]
 172              	.LVL13:
 444:Core/Src/main.c ****       // Calculate x0 = (x / width) * 3.5 - 2.5
 173              		.loc 1 444 33 discriminator 2 view .LVU47
 174 008a 334B     		ldr	r3, .L10+8
 175              	.LVL14:
 444:Core/Src/main.c ****       // Calculate x0 = (x / width) * 3.5 - 2.5
 176              		.loc 1 444 33 discriminator 2 view .LVU48
 177 008c 1BEB0303 		adds	r3, fp, r3
 178 0090 9B46     		mov	fp, r3
 179 0092 049B     		ldr	r3, [sp, #16]
 180 0094 43F10003 		adc	r3, r3, #0
 181 0098 0493     		str	r3, [sp, #16]
 182              	.LVL15:
 183              	.L5:
 444:Core/Src/main.c ****       // Calculate x0 = (x / width) * 3.5 - 2.5
 184              		.loc 1 444 23 is_stmt 1 discriminator 1 view .LVU49
 185 009a DDE90132 		ldrd	r3, r2, [sp, #4]
 186 009e 9342     		cmp	r3, r2
 187 00a0 C8DB     		blt	.L8
 188              	.LBE17:
 442:Core/Src/main.c ****     // Loop through each pixel (x coordinate)
 189              		.loc 1 442 32 discriminator 2 view .LVU50
 190 00a2 009B     		ldr	r3, [sp]
 191 00a4 0133     		adds	r3, r3, #1
 192 00a6 0093     		str	r3, [sp]
 193              	.LVL16:
 442:Core/Src/main.c ****     // Loop through each pixel (x coordinate)
 194              		.loc 1 442 32 is_stmt 0 discriminator 2 view .LVU51
ARM GAS  C:\Users\User\AppData\Local\Temp\cciKCUxe.s 			page 13


 195 00a8 2C4B     		ldr	r3, .L10+12
 196              	.LVL17:
 442:Core/Src/main.c ****     // Loop through each pixel (x coordinate)
 197              		.loc 1 442 32 discriminator 2 view .LVU52
 198 00aa 18EB0303 		adds	r3, r8, r3
 199 00ae 9846     		mov	r8, r3
 200 00b0 059B     		ldr	r3, [sp, #20]
 201 00b2 43F10003 		adc	r3, r3, #0
 202 00b6 0593     		str	r3, [sp, #20]
 203 00b8 B0E7     		b	.L2
 204              	.LVL18:
 205              	.L4:
 206              	.LBB21:
 207              	.LBB20:
 458:Core/Src/main.c ****          ((xi * xi + yi * yi) <= scaled_4)) {
 208              		.loc 1 458 15 view .LVU53
 209 00ba 00FB01F3 		mul	r3, r0, r1
 210 00be A0FB0049 		umull	r4, r9, r0, r0
 458:Core/Src/main.c ****          ((xi * xi + yi * yi) <= scaled_4)) {
 211              		.loc 1 458 25 view .LVU54
 212 00c2 A5FB052A 		umull	r2, r10, r5, r5
 458:Core/Src/main.c ****          ((xi * xi + yi * yi) <= scaled_4)) {
 213              		.loc 1 458 15 view .LVU55
 214 00c6 09EB4309 		add	r9, r9, r3, lsl #1
 458:Core/Src/main.c ****          ((xi * xi + yi * yi) <= scaled_4)) {
 215              		.loc 1 458 25 view .LVU56
 216 00ca 05FB06F3 		mul	r3, r5, r6
 217 00ce 0AEB430A 		add	r10, r10, r3, lsl #1
 457:Core/Src/main.c ****          ((xi * xi + yi * yi) <= scaled_4)) {
 218              		.loc 1 457 41 discriminator 1 view .LVU57
 219 00d2 234B     		ldr	r3, .L10+16
 458:Core/Src/main.c **** 
 220              		.loc 1 458 25 view .LVU58
 221 00d4 0892     		str	r2, [sp, #32]
 458:Core/Src/main.c **** 
 222              		.loc 1 458 20 view .LVU59
 223 00d6 A218     		adds	r2, r4, r2
 224 00d8 49EB0A0C 		adc	ip, r9, r10
 457:Core/Src/main.c ****          ((xi * xi + yi * yi) <= scaled_4)) {
 225              		.loc 1 457 41 discriminator 1 view .LVU60
 226 00dc 9342     		cmp	r3, r2
 227 00de 4FF00003 		mov	r3, #0
 228 00e2 73EB0C03 		sbcs	r3, r3, ip
 229 00e6 C6DB     		blt	.L7
 230              	.LBB19:
 461:Core/Src/main.c **** 
 231              		.loc 1 461 9 is_stmt 1 view .LVU61
 232              	.LVL19:
 464:Core/Src/main.c **** 
 233              		.loc 1 464 9 view .LVU62
 464:Core/Src/main.c **** 
 234              		.loc 1 464 30 is_stmt 0 view .LVU63
 235 00e8 4643     		muls	r6, r0, r6
 236              	.LVL20:
 464:Core/Src/main.c **** 
 237              		.loc 1 464 30 view .LVU64
 238 00ea 05FB0166 		mla	r6, r5, r1, r6
ARM GAS  C:\Users\User\AppData\Local\Temp\cciKCUxe.s 			page 14


 239 00ee A0FB0505 		umull	r0, r5, r0, r5
 240              	.LVL21:
 464:Core/Src/main.c **** 
 241              		.loc 1 464 30 view .LVU65
 242 00f2 2E44     		add	r6, r6, r5
 243 00f4 194D     		ldr	r5, .L10+12
 464:Core/Src/main.c **** 
 244              		.loc 1 464 36 view .LVU66
 245 00f6 1B4A     		ldr	r2, .L10+20
 464:Core/Src/main.c **** 
 246              		.loc 1 464 30 view .LVU67
 247 00f8 A0FB0501 		umull	r0, r1, r0, r5
 464:Core/Src/main.c **** 
 248              		.loc 1 464 36 view .LVU68
 249 00fc 05FB0611 		mla	r1, r5, r6, r1
 250 0100 0023     		movs	r3, #0
 251 0102 FFF7FEFF 		bl	__aeabi_ldivmod
 252              	.LVL22:
 464:Core/Src/main.c **** 
 253              		.loc 1 464 12 view .LVU69
 254 0106 0C9B     		ldr	r3, [sp, #48]
 461:Core/Src/main.c **** 
 255              		.loc 1 461 35 view .LVU70
 256 0108 164A     		ldr	r2, .L10+20
 464:Core/Src/main.c **** 
 257              		.loc 1 464 12 view .LVU71
 258 010a 1D18     		adds	r5, r3, r0
 259 010c 0D9B     		ldr	r3, [sp, #52]
 461:Core/Src/main.c **** 
 260              		.loc 1 461 35 view .LVU72
 261 010e 2046     		mov	r0, r4
 464:Core/Src/main.c **** 
 262              		.loc 1 464 12 view .LVU73
 263 0110 43EB0106 		adc	r6, r3, r1
 264              	.LVL23:
 467:Core/Src/main.c **** 
 265              		.loc 1 467 9 is_stmt 1 view .LVU74
 461:Core/Src/main.c **** 
 266              		.loc 1 461 35 is_stmt 0 view .LVU75
 267 0114 0023     		movs	r3, #0
 268 0116 4946     		mov	r1, r9
 269 0118 FFF7FEFF 		bl	__aeabi_ldivmod
 270              	.LVL24:
 461:Core/Src/main.c **** 
 271              		.loc 1 461 57 view .LVU76
 272 011c 4FF0FF33 		mov	r3, #-1
 461:Core/Src/main.c **** 
 273              		.loc 1 461 35 view .LVU77
 274 0120 0446     		mov	r4, r0
 275              	.LVL25:
 461:Core/Src/main.c **** 
 276              		.loc 1 461 35 view .LVU78
 277 0122 8946     		mov	r9, r1
 461:Core/Src/main.c **** 
 278              		.loc 1 461 57 view .LVU79
 279 0124 0B4A     		ldr	r2, .L10+4
 280 0126 0898     		ldr	r0, [sp, #32]
ARM GAS  C:\Users\User\AppData\Local\Temp\cciKCUxe.s 			page 15


 281 0128 5146     		mov	r1, r10
 282 012a FFF7FEFF 		bl	__aeabi_ldivmod
 283              	.LVL26:
 467:Core/Src/main.c **** 
 284              		.loc 1 467 12 view .LVU80
 285 012e 0A9B     		ldr	r3, [sp, #40]
 461:Core/Src/main.c **** 
 286              		.loc 1 461 17 view .LVU81
 287 0130 2418     		adds	r4, r4, r0
 288 0132 49EB0109 		adc	r9, r9, r1
 467:Core/Src/main.c **** 
 289              		.loc 1 467 12 view .LVU82
 290 0136 E018     		adds	r0, r4, r3
 291 0138 0B9B     		ldr	r3, [sp, #44]
 469:Core/Src/main.c ****       }
 292              		.loc 1 469 18 view .LVU83
 293 013a 07F10107 		add	r7, r7, #1
 294              	.LVL27:
 467:Core/Src/main.c **** 
 295              		.loc 1 467 12 view .LVU84
 296 013e 43EB0901 		adc	r1, r3, r9
 297              	.LVL28:
 469:Core/Src/main.c ****       }
 298              		.loc 1 469 9 is_stmt 1 view .LVU85
 469:Core/Src/main.c ****       }
 299              		.loc 1 469 9 is_stmt 0 view .LVU86
 300 0142 95E7     		b	.L3
 301              	.LVL29:
 302              	.L1:
 469:Core/Src/main.c ****       }
 303              		.loc 1 469 9 view .LVU87
 304              	.LBE19:
 305              	.LBE20:
 306              	.LBE21:
 307              	.LBE23:
 474:Core/Src/main.c ****     }
 475:Core/Src/main.c ****   }
 476:Core/Src/main.c **** 
 477:Core/Src/main.c **** 
 478:Core/Src/main.c **** 
 479:Core/Src/main.c ****     return mandelbrot_sum;
 480:Core/Src/main.c **** 
 481:Core/Src/main.c **** }
 308              		.loc 1 481 1 view .LVU88
 309 0144 DDE90601 		ldrd	r0, r1, [sp, #24]
 310 0148 0FB0     		add	sp, sp, #60
 311              	.LCFI2:
 312              		.cfi_def_cfa_offset 36
 313              		@ sp needed
 314 014a BDE8F08F 		pop	{r4, r5, r6, r7, r8, r9, r10, fp, pc}
 315              	.LVL30:
 316              	.L11:
 317              		.loc 1 481 1 view .LVU89
 318 014e 00BF     		.align	2
 319              	.L10:
 320 0150 60DAD9FF 		.word	-2500000
 321 0154 C0BDF0FF 		.word	-1000000
ARM GAS  C:\Users\User\AppData\Local\Temp\cciKCUxe.s 			page 16


 322 0158 E0673500 		.word	3500000
 323 015c 80841E00 		.word	2000000
 324 0160 00093D00 		.word	4000000
 325 0164 40420F00 		.word	1000000
 326              		.cfi_endproc
 327              	.LFE137:
 329              		.section	.text.SystemClock_Config,"ax",%progbits
 330              		.align	1
 331              		.global	SystemClock_Config
 332              		.syntax unified
 333              		.thumb
 334              		.thumb_func
 336              	SystemClock_Config:
 337              	.LFB135:
 365:Core/Src/main.c ****   RCC_OscInitTypeDef RCC_OscInitStruct = {0};
 338              		.loc 1 365 1 is_stmt 1 view -0
 339              		.cfi_startproc
 340              		@ args = 0, pretend = 0, frame = 72
 341              		@ frame_needed = 0, uses_anonymous_args = 0
 366:Core/Src/main.c ****   RCC_ClkInitTypeDef RCC_ClkInitStruct = {0};
 342              		.loc 1 366 3 view .LVU91
 365:Core/Src/main.c ****   RCC_OscInitTypeDef RCC_OscInitStruct = {0};
 343              		.loc 1 365 1 is_stmt 0 view .LVU92
 344 0000 00B5     		push	{lr}
 345              	.LCFI3:
 346              		.cfi_def_cfa_offset 4
 347              		.cfi_offset 14, -4
 348 0002 93B0     		sub	sp, sp, #76
 349              	.LCFI4:
 350              		.cfi_def_cfa_offset 80
 366:Core/Src/main.c ****   RCC_ClkInitTypeDef RCC_ClkInitStruct = {0};
 351              		.loc 1 366 22 view .LVU93
 352 0004 3022     		movs	r2, #48
 353 0006 0021     		movs	r1, #0
 354 0008 06A8     		add	r0, sp, #24
 355 000a FFF7FEFF 		bl	memset
 356              	.LVL31:
 367:Core/Src/main.c **** 
 357              		.loc 1 367 3 is_stmt 1 view .LVU94
 367:Core/Src/main.c **** 
 358              		.loc 1 367 22 is_stmt 0 view .LVU95
 359 000e 1422     		movs	r2, #20
 360 0010 0021     		movs	r1, #0
 361 0012 6846     		mov	r0, sp
 362 0014 FFF7FEFF 		bl	memset
 363              	.LVL32:
 372:Core/Src/main.c ****   RCC_OscInitStruct.HSIState = RCC_HSI_ON;
 364              		.loc 1 372 3 is_stmt 1 view .LVU96
 372:Core/Src/main.c ****   RCC_OscInitStruct.HSIState = RCC_HSI_ON;
 365              		.loc 1 372 36 is_stmt 0 view .LVU97
 366 0018 0223     		movs	r3, #2
 374:Core/Src/main.c ****   RCC_OscInitStruct.PLL.PLLState = RCC_PLL_NONE;
 367              		.loc 1 374 41 view .LVU98
 368 001a 0121     		movs	r1, #1
 372:Core/Src/main.c ****   RCC_OscInitStruct.HSIState = RCC_HSI_ON;
 369              		.loc 1 372 36 view .LVU99
 370 001c 0593     		str	r3, [sp, #20]
ARM GAS  C:\Users\User\AppData\Local\Temp\cciKCUxe.s 			page 17


 373:Core/Src/main.c ****   RCC_OscInitStruct.HSICalibrationValue = RCC_HSICALIBRATION_DEFAULT;
 371              		.loc 1 373 3 is_stmt 1 view .LVU100
 376:Core/Src/main.c ****   {
 372              		.loc 1 376 7 is_stmt 0 view .LVU101
 373 001e 05A8     		add	r0, sp, #20
 374:Core/Src/main.c ****   RCC_OscInitStruct.PLL.PLLState = RCC_PLL_NONE;
 374              		.loc 1 374 41 view .LVU102
 375 0020 1023     		movs	r3, #16
 376 0022 CDE90813 		strd	r1, r3, [sp, #32]
 375:Core/Src/main.c ****   if (HAL_RCC_OscConfig(&RCC_OscInitStruct) != HAL_OK)
 377              		.loc 1 375 3 is_stmt 1 view .LVU103
 376:Core/Src/main.c ****   {
 378              		.loc 1 376 3 view .LVU104
 376:Core/Src/main.c ****   {
 379              		.loc 1 376 7 is_stmt 0 view .LVU105
 380 0026 FFF7FEFF 		bl	HAL_RCC_OscConfig
 381              	.LVL33:
 376:Core/Src/main.c ****   {
 382              		.loc 1 376 6 discriminator 1 view .LVU106
 383 002a 0146     		mov	r1, r0
 384 002c 08B1     		cbz	r0, .L13
 378:Core/Src/main.c ****   }
 385              		.loc 1 378 5 is_stmt 1 view .LVU107
 386              	.LBB24:
 387              	.LBI24:
 482:Core/Src/main.c **** 
 483:Core/Src/main.c **** //TODO: Mandelbroat using variable type double
 484:Core/Src/main.c **** uint64_t calculate_mandelbrot_double(int width, int height, int max_iterations){
 485:Core/Src/main.c ****     uint64_t mandelbrot_sum = 0;
 486:Core/Src/main.c ****     //TODO: Complete the function implementation
 487:Core/Src/main.c **** 
 488:Core/Src/main.c ****         // Loop through each pixel (y coordinate)
 489:Core/Src/main.c ****         for (int y = 0; y < height; y++) {
 490:Core/Src/main.c ****             // Loop through each pixel (x coordinate)
 491:Core/Src/main.c ****             for (int x = 0; x < width; x++) {
 492:Core/Src/main.c ****                 // Calculate x0 = (x / width) * 3.5 - 2.5
 493:Core/Src/main.c ****                 double x0 = ((double)x / width) * 3.5 - 2.5;
 494:Core/Src/main.c **** 
 495:Core/Src/main.c ****                 // Calculate y0 = (y / height) * 2.0 - 1.0
 496:Core/Src/main.c ****                 double y0 = ((double)y / height) * 2.0 - 1.0;
 497:Core/Src/main.c **** 
 498:Core/Src/main.c ****                 // Initialize iteration variables
 499:Core/Src/main.c ****                 double xi = 0.0;
 500:Core/Src/main.c ****                 double yi = 0.0;
 501:Core/Src/main.c ****                 int iteration = 0;
 502:Core/Src/main.c **** 
 503:Core/Src/main.c ****                 // Main iteration loop
 504:Core/Src/main.c ****                 while (iteration < max_iterations &&
 505:Core/Src/main.c ****                        ((xi * xi + yi * yi) <= 4.0)) {
 506:Core/Src/main.c **** 
 507:Core/Src/main.c ****                     // temp = xi^2 - yi^2
 508:Core/Src/main.c ****                     double temp = xi * xi - yi * yi;
 509:Core/Src/main.c **** 
 510:Core/Src/main.c ****                     // yi = 2 * xi * yi + y0
 511:Core/Src/main.c ****                     yi = 2.0 * xi * yi + y0;
 512:Core/Src/main.c **** 
 513:Core/Src/main.c ****                     // xi = temp + x0
ARM GAS  C:\Users\User\AppData\Local\Temp\cciKCUxe.s 			page 18


 514:Core/Src/main.c ****                     xi = temp + x0;
 515:Core/Src/main.c **** 
 516:Core/Src/main.c ****                     iteration++;
 517:Core/Src/main.c ****                 }
 518:Core/Src/main.c **** 
 519:Core/Src/main.c ****                 // Add iteration count to checksum
 520:Core/Src/main.c ****                 mandelbrot_sum += iteration;
 521:Core/Src/main.c ****             }
 522:Core/Src/main.c ****         }
 523:Core/Src/main.c **** 
 524:Core/Src/main.c ****         return mandelbrot_sum;
 525:Core/Src/main.c **** }
 526:Core/Src/main.c **** 
 527:Core/Src/main.c **** // DWT Initialization Function
 528:Core/Src/main.c **** void MX_DWT_Init(void) {
 529:Core/Src/main.c ****     // Enable DWT counter
 530:Core/Src/main.c ****     CoreDebug->DEMCR |= CoreDebug_DEMCR_TRCENA_Msk;
 531:Core/Src/main.c ****     DWT->CTRL |= DWT_CTRL_CYCCNTENA_Msk;
 532:Core/Src/main.c ****     
 533:Core/Src/main.c ****     // Reset counter
 534:Core/Src/main.c ****     DWT->CYCCNT = 0;
 535:Core/Src/main.c **** }
 536:Core/Src/main.c **** 
 537:Core/Src/main.c **** // Task 4: Single pixel calculation functions
 538:Core/Src/main.c **** 
 539:Core/Src/main.c **** // Calculate Mandelbrot for a single pixel using fixed-point arithmetic
 540:Core/Src/main.c **** uint64_t calculate_single_pixel_mandelbrot_fixed(int x, int y, int width, int height, int max_iter)
 541:Core/Src/main.c ****     // Fixed-point scaling factor (10^6 as suggested in Appendix B)
 542:Core/Src/main.c ****     const int64_t SCALE = 1000000;
 543:Core/Src/main.c ****     
 544:Core/Src/main.c ****     // Pre-calculate scaled constants
 545:Core/Src/main.c ****     int64_t scaled_3_5 = 3 * SCALE + (5 * SCALE) / 10;  // 3.5 * SCALE
 546:Core/Src/main.c ****     int64_t scaled_2_0 = 2 * SCALE;                      // 2.0 * SCALE
 547:Core/Src/main.c ****     int64_t scaled_2_5 = 2 * SCALE + (5 * SCALE) / 10;  // 2.5 * SCALE
 548:Core/Src/main.c ****     int64_t scaled_1_0 = SCALE;                          // 1.0 * SCALE
 549:Core/Src/main.c ****     int64_t scaled_4 = 4 * SCALE;                        // 4 * SCALE
 550:Core/Src/main.c ****     int64_t scaled_2 = 2 * SCALE;                        // 2 * SCALE
 551:Core/Src/main.c ****     
 552:Core/Src/main.c ****     // Calculate x0 = (x / width) * 3.5 - 2.5
 553:Core/Src/main.c ****     int64_t x0 = ((x * scaled_3_5) / width) - scaled_2_5;
 554:Core/Src/main.c ****     
 555:Core/Src/main.c ****     // Calculate y0 = (y / height) * 2.0 - 1.0
 556:Core/Src/main.c ****     int64_t y0 = ((y * scaled_2_0) / height) - scaled_1_0;
 557:Core/Src/main.c ****     
 558:Core/Src/main.c ****     // Initialize iteration variables
 559:Core/Src/main.c ****     int64_t xi = 0;
 560:Core/Src/main.c ****     int64_t yi = 0;
 561:Core/Src/main.c ****     int iteration = 0;
 562:Core/Src/main.c ****     
 563:Core/Src/main.c ****     // Main iteration loop
 564:Core/Src/main.c ****     while (iteration < max_iter && ((xi * xi + yi * yi) <= scaled_4)) {
 565:Core/Src/main.c ****         // temp = xi^2 - yi^2
 566:Core/Src/main.c ****         int64_t temp = ((xi * xi) / SCALE) - ((yi * yi) / SCALE);
 567:Core/Src/main.c ****         
 568:Core/Src/main.c ****         // yi = 2 * xi * yi + y0
 569:Core/Src/main.c ****         yi = ((scaled_2 * xi * yi) / SCALE) + y0;
 570:Core/Src/main.c ****         
ARM GAS  C:\Users\User\AppData\Local\Temp\cciKCUxe.s 			page 19


 571:Core/Src/main.c ****         // xi = temp + x0
 572:Core/Src/main.c ****         xi = temp + x0;
 573:Core/Src/main.c ****         
 574:Core/Src/main.c ****         iteration++;
 575:Core/Src/main.c ****     }
 576:Core/Src/main.c ****     
 577:Core/Src/main.c ****     return (uint64_t)iteration;
 578:Core/Src/main.c **** }
 579:Core/Src/main.c **** 
 580:Core/Src/main.c **** // Calculate Mandelbrot for a single pixel using double arithmetic
 581:Core/Src/main.c **** uint64_t calculate_single_pixel_mandelbrot_double(int x, int y, int width, int height, int max_iter
 582:Core/Src/main.c ****     // Calculate x0 = (x / width) * 3.5 - 2.5
 583:Core/Src/main.c ****     double x0 = ((double)x / width) * 3.5 - 2.5;
 584:Core/Src/main.c ****     
 585:Core/Src/main.c ****     // Calculate y0 = (y / height) * 2.0 - 1.0
 586:Core/Src/main.c ****     double y0 = ((double)y / height) * 2.0 - 1.0;
 587:Core/Src/main.c ****     
 588:Core/Src/main.c ****     // Initialize iteration variables
 589:Core/Src/main.c ****     double xi = 0.0;
 590:Core/Src/main.c ****     double yi = 0.0;
 591:Core/Src/main.c ****     int iteration = 0;
 592:Core/Src/main.c ****     
 593:Core/Src/main.c ****     // Main iteration loop
 594:Core/Src/main.c ****     while (iteration < max_iter && ((xi * xi + yi * yi) <= 4.0)) {
 595:Core/Src/main.c ****         // temp = xi^2 - yi^2
 596:Core/Src/main.c ****         double temp = xi * xi - yi * yi;
 597:Core/Src/main.c ****         
 598:Core/Src/main.c ****         // yi = 2 * xi * yi + y0
 599:Core/Src/main.c ****         yi = 2.0 * xi * yi + y0;
 600:Core/Src/main.c ****         
 601:Core/Src/main.c ****         // xi = temp + x0
 602:Core/Src/main.c ****         xi = temp + x0;
 603:Core/Src/main.c ****         
 604:Core/Src/main.c ****         iteration++;
 605:Core/Src/main.c ****     }
 606:Core/Src/main.c ****     
 607:Core/Src/main.c ****     return (uint64_t)iteration;
 608:Core/Src/main.c **** }
 609:Core/Src/main.c **** 
 610:Core/Src/main.c **** // Reset chunk processing counters
 611:Core/Src/main.c **** void reset_chunk_counters(void) {
 612:Core/Src/main.c ****     total_chunks_processed = 0;
 613:Core/Src/main.c ****     current_chunk_x = 0;
 614:Core/Src/main.c ****     current_chunk_y = 0;
 615:Core/Src/main.c **** }
 616:Core/Src/main.c **** 
 617:Core/Src/main.c **** // Calculate Mandelbrot for a specific chunk of the full image
 618:Core/Src/main.c **** uint64_t calculate_mandelbrot_chunk(int chunk_x, int chunk_y, int chunk_width, int chunk_height,
 619:Core/Src/main.c ****                                    int full_width, int full_height, int max_iter,
 620:Core/Src/main.c ****                                    uint64_t (*mandelbrot_func)(int, int, int)) {
 621:Core/Src/main.c ****     
 622:Core/Src/main.c ****     uint64_t chunk_checksum = 0;
 623:Core/Src/main.c ****     
 624:Core/Src/main.c ****     // Process each pixel in the chunk
 625:Core/Src/main.c ****     for (int local_y = 0; local_y < chunk_height; local_y++) {
 626:Core/Src/main.c ****         for (int local_x = 0; local_x < chunk_width; local_x++) {
 627:Core/Src/main.c ****             
ARM GAS  C:\Users\User\AppData\Local\Temp\cciKCUxe.s 			page 20


 628:Core/Src/main.c ****             // Convert local chunk coordinates to full image coordinates
 629:Core/Src/main.c ****             int global_x = chunk_x + local_x;
 630:Core/Src/main.c ****             int global_y = chunk_y + local_y;
 631:Core/Src/main.c ****             
 632:Core/Src/main.c ****             // Calculate Mandelbrot for this single pixel
 633:Core/Src/main.c ****             uint64_t pixel_checksum;
 634:Core/Src/main.c ****             if (mandelbrot_func == calculate_mandelbrot_fixed_point_arithmetic) {
 635:Core/Src/main.c ****                 pixel_checksum = calculate_single_pixel_mandelbrot_fixed(
 636:Core/Src/main.c ****                     global_x, global_y, full_width, full_height, max_iter);
 637:Core/Src/main.c ****             } else {
 638:Core/Src/main.c ****                 pixel_checksum = calculate_single_pixel_mandelbrot_double(
 639:Core/Src/main.c ****                     global_x, global_y, full_width, full_height, max_iter);
 640:Core/Src/main.c ****             }
 641:Core/Src/main.c ****             
 642:Core/Src/main.c ****             chunk_checksum += pixel_checksum;
 643:Core/Src/main.c ****         }
 644:Core/Src/main.c ****     }
 645:Core/Src/main.c ****     
 646:Core/Src/main.c ****     return chunk_checksum;
 647:Core/Src/main.c **** }
 648:Core/Src/main.c **** 
 649:Core/Src/main.c **** // Main function to process large images in chunks
 650:Core/Src/main.c **** void process_image_in_chunks(int full_width, int full_height, int max_iter, 
 651:Core/Src/main.c ****                             uint64_t (*mandelbrot_func)(int, int, int),
 652:Core/Src/main.c ****                             uint32_t *wall_clock, uint32_t *cpu_cycles, 
 653:Core/Src/main.c ****                             float *throughput, uint64_t *total_checksum) {
 654:Core/Src/main.c ****     
 655:Core/Src/main.c ****     uint32_t start_time = HAL_GetTick();
 656:Core/Src/main.c ****     uint32_t dwt_start_cycles = DWT->CYCCNT;
 657:Core/Src/main.c ****     uint64_t cumulative_checksum = 0;
 658:Core/Src/main.c ****     reset_chunk_counters();
 659:Core/Src/main.c ****     
 660:Core/Src/main.c ****     // Calculate number of chunks needed
 661:Core/Src/main.c ****     int chunks_x = (full_width + MAX_CHUNK_SIZE - 1) / MAX_CHUNK_SIZE;
 662:Core/Src/main.c ****     int chunks_y = (full_height + MAX_CHUNK_SIZE - 1) / MAX_CHUNK_SIZE;
 663:Core/Src/main.c ****     
 664:Core/Src/main.c ****     // Process image in chunks
 665:Core/Src/main.c ****     for (int chunk_y = 0; chunk_y < chunks_y; chunk_y++) {
 666:Core/Src/main.c ****         for (int chunk_x = 0; chunk_x < chunks_x; chunk_x++) {
 667:Core/Src/main.c ****             
 668:Core/Src/main.c ****             // Calculate chunk dimensions
 669:Core/Src/main.c ****             int chunk_start_x = chunk_x * MAX_CHUNK_SIZE;
 670:Core/Src/main.c ****             int chunk_start_y = chunk_y * MAX_CHUNK_SIZE;
 671:Core/Src/main.c ****             int chunk_width = (chunk_start_x + MAX_CHUNK_SIZE > full_width) ? 
 672:Core/Src/main.c ****                              (full_width - chunk_start_x) : MAX_CHUNK_SIZE;
 673:Core/Src/main.c ****             int chunk_height = (chunk_start_y + MAX_CHUNK_SIZE > full_height) ? 
 674:Core/Src/main.c ****                               (full_height - chunk_start_y) : MAX_CHUNK_SIZE;
 675:Core/Src/main.c ****             
 676:Core/Src/main.c ****             // Process this chunk
 677:Core/Src/main.c ****             uint64_t chunk_checksum = calculate_mandelbrot_chunk(
 678:Core/Src/main.c ****                 chunk_start_x, chunk_start_y, chunk_width, chunk_height,
 679:Core/Src/main.c ****                 full_width, full_height, max_iter, mandelbrot_func);
 680:Core/Src/main.c ****             
 681:Core/Src/main.c ****             // Accumulate checksum
 682:Core/Src/main.c ****             cumulative_checksum += chunk_checksum;
 683:Core/Src/main.c ****             total_chunks_processed++;
 684:Core/Src/main.c ****             
ARM GAS  C:\Users\User\AppData\Local\Temp\cciKCUxe.s 			page 21


 685:Core/Src/main.c ****             // Optional: LED indication for progress
 686:Core/Src/main.c ****             if (total_chunks_processed % 20 == 0) {
 687:Core/Src/main.c ****                 HAL_GPIO_TogglePin(GPIOB, GPIO_PIN_0); // Blink LED every 20 chunks
 688:Core/Src/main.c ****             }
 689:Core/Src/main.c ****         }
 690:Core/Src/main.c ****     }
 691:Core/Src/main.c ****     
 692:Core/Src/main.c ****     uint32_t end_time = HAL_GetTick();
 693:Core/Src/main.c ****     uint32_t dwt_end_cycles = DWT->CYCCNT;
 694:Core/Src/main.c ****     
 695:Core/Src/main.c ****     // Calculate results
 696:Core/Src/main.c ****     *wall_clock = end_time - start_time;
 697:Core/Src/main.c ****     *cpu_cycles = dwt_end_cycles - dwt_start_cycles;
 698:Core/Src/main.c ****     *total_checksum = cumulative_checksum;
 699:Core/Src/main.c ****     *throughput = (float)(full_width * full_height) / (*wall_clock / 1000.0f);
 700:Core/Src/main.c **** }
 701:Core/Src/main.c **** 
 702:Core/Src/main.c **** // Task 7: Fixed-point scaling factor testing functions
 703:Core/Src/main.c **** 
 704:Core/Src/main.c **** // Calculate Mandelbrot with variable scaling factor
 705:Core/Src/main.c **** uint64_t calculate_mandelbrot_fixed_point_with_scale(int width, int height, int max_iter, int64_t s
 706:Core/Src/main.c ****     uint64_t mandelbrot_sum = 0;
 707:Core/Src/main.c ****     *overflow_count = 0;
 708:Core/Src/main.c ****     
 709:Core/Src/main.c ****     // Pre-calculate scaled constants using variable scale factor
 710:Core/Src/main.c ****     int64_t scaled_3_5 = 3 * scale_factor + (5 * scale_factor) / 10;  // 3.5 * SCALE
 711:Core/Src/main.c ****     int64_t scaled_2_0 = 2 * scale_factor;                            // 2.0 * SCALE
 712:Core/Src/main.c ****     int64_t scaled_2_5 = 2 * scale_factor + (5 * scale_factor) / 10;  // 2.5 * SCALE
 713:Core/Src/main.c ****     int64_t scaled_1_0 = scale_factor;                                 // 1.0 * SCALE
 714:Core/Src/main.c ****     int64_t scaled_4 = 4 * scale_factor;                              // 4 * SCALE
 715:Core/Src/main.c ****     int64_t scaled_2 = 2 * scale_factor;                              // 2 * SCALE
 716:Core/Src/main.c ****     
 717:Core/Src/main.c ****     // Loop through each pixel
 718:Core/Src/main.c ****     for (int y = 0; y < height; y++) {
 719:Core/Src/main.c ****         for (int x = 0; x < width; x++) {
 720:Core/Src/main.c ****             // Calculate x0 = (x / width) * 3.5 - 2.5
 721:Core/Src/main.c ****             int64_t x0 = ((x * scaled_3_5) / width) - scaled_2_5;
 722:Core/Src/main.c ****             
 723:Core/Src/main.c ****             // Calculate y0 = (y / height) * 2.0 - 1.0
 724:Core/Src/main.c ****             int64_t y0 = ((y * scaled_2_0) / height) - scaled_1_0;
 725:Core/Src/main.c ****             
 726:Core/Src/main.c ****             // Initialize iteration variables
 727:Core/Src/main.c ****             int64_t xi = 0;
 728:Core/Src/main.c ****             int64_t yi = 0;
 729:Core/Src/main.c ****             int iteration = 0;
 730:Core/Src/main.c ****             
 731:Core/Src/main.c ****             // Main iteration loop with overflow detection
 732:Core/Src/main.c ****             while (iteration < max_iter && ((xi * xi + yi * yi) <= scaled_4)) {
 733:Core/Src/main.c ****                 // Check for potential overflow before calculations
 734:Core/Src/main.c ****                 if (xi > 0 && xi > (INT64_MAX / scale_factor)) {
 735:Core/Src/main.c ****                     (*overflow_count)++;
 736:Core/Src/main.c ****                     break;
 737:Core/Src/main.c ****                 }
 738:Core/Src/main.c ****                 if (yi > 0 && yi > (INT64_MAX / scale_factor)) {
 739:Core/Src/main.c ****                     (*overflow_count)++;
 740:Core/Src/main.c ****                     break;
 741:Core/Src/main.c ****                 }
ARM GAS  C:\Users\User\AppData\Local\Temp\cciKCUxe.s 			page 22


 742:Core/Src/main.c ****                 
 743:Core/Src/main.c ****                 // temp = xi^2 - yi^2
 744:Core/Src/main.c ****                 int64_t temp = ((xi * xi) / scale_factor) - ((yi * yi) / scale_factor);
 745:Core/Src/main.c ****                 
 746:Core/Src/main.c ****                 // yi = 2 * xi * yi + y0
 747:Core/Src/main.c ****                 yi = ((scaled_2 * xi * yi) / scale_factor) + y0;
 748:Core/Src/main.c ****                 
 749:Core/Src/main.c ****                 // xi = temp + x0
 750:Core/Src/main.c ****                 xi = temp + x0;
 751:Core/Src/main.c ****                 
 752:Core/Src/main.c ****                 iteration++;
 753:Core/Src/main.c ****             }
 754:Core/Src/main.c ****             
 755:Core/Src/main.c ****             mandelbrot_sum += iteration;
 756:Core/Src/main.c ****         }
 757:Core/Src/main.c ****     }
 758:Core/Src/main.c ****     
 759:Core/Src/main.c ****     return mandelbrot_sum;
 760:Core/Src/main.c **** }
 761:Core/Src/main.c **** 
 762:Core/Src/main.c **** // Test all scaling factors
 763:Core/Src/main.c **** void test_scaling_factors(void) {
 764:Core/Src/main.c ****     for (int scale_idx = 0; scale_idx < 3; scale_idx++) {
 765:Core/Src/main.c ****         int64_t current_scale = scaling_factors[scale_idx];
 766:Core/Src/main.c ****         
 767:Core/Src/main.c ****         for (int size_idx = 0; size_idx < 5; size_idx++) {
 768:Core/Src/main.c ****             int current_size = task7_image_sizes[size_idx];
 769:Core/Src/main.c ****             
 770:Core/Src/main.c ****             // Convert 2D indices to 1D index
 771:Core/Src/main.c ****             int test_index = scale_idx * 5 + size_idx;
 772:Core/Src/main.c ****             task7_test_index = test_index;
 773:Core/Src/main.c ****             
 774:Core/Src/main.c ****             // LED indication for progress
 775:Core/Src/main.c ****             HAL_GPIO_WritePin(GPIOB, GPIO_PIN_0, GPIO_PIN_SET);
 776:Core/Src/main.c ****             
 777:Core/Src/main.c ****             // Record start time
 778:Core/Src/main.c ****             uint32_t start_time = HAL_GetTick();
 779:Core/Src/main.c ****             
 780:Core/Src/main.c ****             // Test with current scaling factor
 781:Core/Src/main.c ****             uint32_t overflow_count = 0;
 782:Core/Src/main.c ****             task7_checksums[test_index] = calculate_mandelbrot_fixed_point_with_scale(
 783:Core/Src/main.c ****                 current_size, current_size, max_iterations, current_scale, &overflow_count);
 784:Core/Src/main.c ****             
 785:Core/Src/main.c ****             // Record end time
 786:Core/Src/main.c ****             uint32_t end_time = HAL_GetTick();
 787:Core/Src/main.c ****             task7_execution_times[test_index] = end_time - start_time;
 788:Core/Src/main.c ****             task7_overflow_counts[test_index] = overflow_count;
 789:Core/Src/main.c ****             
 790:Core/Src/main.c ****             HAL_GPIO_WritePin(GPIOB, GPIO_PIN_0, GPIO_PIN_RESET);
 791:Core/Src/main.c ****             HAL_Delay(200);
 792:Core/Src/main.c ****         }
 793:Core/Src/main.c ****     }
 794:Core/Src/main.c **** }
 795:Core/Src/main.c **** 
 796:Core/Src/main.c **** // Analyze scaling results (placeholder for analysis)
 797:Core/Src/main.c **** void analyze_scaling_results(void) {
 798:Core/Src/main.c ****     // This function can be used to analyze the results
ARM GAS  C:\Users\User\AppData\Local\Temp\cciKCUxe.s 			page 23


 799:Core/Src/main.c ****     // For now, it's a placeholder
 800:Core/Src/main.c **** }
 801:Core/Src/main.c **** 
 802:Core/Src/main.c **** /* USER CODE END 4 */
 803:Core/Src/main.c **** 
 804:Core/Src/main.c **** /**
 805:Core/Src/main.c ****   * @brief  This function is executed in case of error occurrence.
 806:Core/Src/main.c ****   * @retval None
 807:Core/Src/main.c ****   */
 808:Core/Src/main.c **** void Error_Handler(void)
 388              		.loc 1 808 6 view .LVU108
 809:Core/Src/main.c **** {
 810:Core/Src/main.c ****   /* USER CODE BEGIN Error_Handler_Debug */
 811:Core/Src/main.c ****   /* User can add his own implementation to report the HAL error return state */
 812:Core/Src/main.c ****   __disable_irq();
 389              		.loc 1 812 3 view .LVU109
 390              	.LBB25:
 391              	.LBI25:
 392              		.file 2 "Drivers/CMSIS/Include/cmsis_gcc.h"
   1:Drivers/CMSIS/Include/cmsis_gcc.h **** /**************************************************************************//**
   2:Drivers/CMSIS/Include/cmsis_gcc.h ****  * @file     cmsis_gcc.h
   3:Drivers/CMSIS/Include/cmsis_gcc.h ****  * @brief    CMSIS compiler GCC header file
   4:Drivers/CMSIS/Include/cmsis_gcc.h ****  * @version  V5.4.1
   5:Drivers/CMSIS/Include/cmsis_gcc.h ****  * @date     27. May 2021
   6:Drivers/CMSIS/Include/cmsis_gcc.h ****  ******************************************************************************/
   7:Drivers/CMSIS/Include/cmsis_gcc.h **** /*
   8:Drivers/CMSIS/Include/cmsis_gcc.h ****  * Copyright (c) 2009-2021 Arm Limited. All rights reserved.
   9:Drivers/CMSIS/Include/cmsis_gcc.h ****  *
  10:Drivers/CMSIS/Include/cmsis_gcc.h ****  * SPDX-License-Identifier: Apache-2.0
  11:Drivers/CMSIS/Include/cmsis_gcc.h ****  *
  12:Drivers/CMSIS/Include/cmsis_gcc.h ****  * Licensed under the Apache License, Version 2.0 (the License); you may
  13:Drivers/CMSIS/Include/cmsis_gcc.h ****  * not use this file except in compliance with the License.
  14:Drivers/CMSIS/Include/cmsis_gcc.h ****  * You may obtain a copy of the License at
  15:Drivers/CMSIS/Include/cmsis_gcc.h ****  *
  16:Drivers/CMSIS/Include/cmsis_gcc.h ****  * www.apache.org/licenses/LICENSE-2.0
  17:Drivers/CMSIS/Include/cmsis_gcc.h ****  *
  18:Drivers/CMSIS/Include/cmsis_gcc.h ****  * Unless required by applicable law or agreed to in writing, software
  19:Drivers/CMSIS/Include/cmsis_gcc.h ****  * distributed under the License is distributed on an AS IS BASIS, WITHOUT
  20:Drivers/CMSIS/Include/cmsis_gcc.h ****  * WARRANTIES OR CONDITIONS OF ANY KIND, either express or implied.
  21:Drivers/CMSIS/Include/cmsis_gcc.h ****  * See the License for the specific language governing permissions and
  22:Drivers/CMSIS/Include/cmsis_gcc.h ****  * limitations under the License.
  23:Drivers/CMSIS/Include/cmsis_gcc.h ****  */
  24:Drivers/CMSIS/Include/cmsis_gcc.h **** 
  25:Drivers/CMSIS/Include/cmsis_gcc.h **** #ifndef __CMSIS_GCC_H
  26:Drivers/CMSIS/Include/cmsis_gcc.h **** #define __CMSIS_GCC_H
  27:Drivers/CMSIS/Include/cmsis_gcc.h **** 
  28:Drivers/CMSIS/Include/cmsis_gcc.h **** /* ignore some GCC warnings */
  29:Drivers/CMSIS/Include/cmsis_gcc.h **** #pragma GCC diagnostic push
  30:Drivers/CMSIS/Include/cmsis_gcc.h **** #pragma GCC diagnostic ignored "-Wsign-conversion"
  31:Drivers/CMSIS/Include/cmsis_gcc.h **** #pragma GCC diagnostic ignored "-Wconversion"
  32:Drivers/CMSIS/Include/cmsis_gcc.h **** #pragma GCC diagnostic ignored "-Wunused-parameter"
  33:Drivers/CMSIS/Include/cmsis_gcc.h **** 
  34:Drivers/CMSIS/Include/cmsis_gcc.h **** /* Fallback for __has_builtin */
  35:Drivers/CMSIS/Include/cmsis_gcc.h **** #ifndef __has_builtin
  36:Drivers/CMSIS/Include/cmsis_gcc.h ****   #define __has_builtin(x) (0)
  37:Drivers/CMSIS/Include/cmsis_gcc.h **** #endif
  38:Drivers/CMSIS/Include/cmsis_gcc.h **** 
ARM GAS  C:\Users\User\AppData\Local\Temp\cciKCUxe.s 			page 24


  39:Drivers/CMSIS/Include/cmsis_gcc.h **** /* CMSIS compiler specific defines */
  40:Drivers/CMSIS/Include/cmsis_gcc.h **** #ifndef   __ASM
  41:Drivers/CMSIS/Include/cmsis_gcc.h ****   #define __ASM                                  __asm
  42:Drivers/CMSIS/Include/cmsis_gcc.h **** #endif
  43:Drivers/CMSIS/Include/cmsis_gcc.h **** #ifndef   __INLINE
  44:Drivers/CMSIS/Include/cmsis_gcc.h ****   #define __INLINE                               inline
  45:Drivers/CMSIS/Include/cmsis_gcc.h **** #endif
  46:Drivers/CMSIS/Include/cmsis_gcc.h **** #ifndef   __STATIC_INLINE
  47:Drivers/CMSIS/Include/cmsis_gcc.h ****   #define __STATIC_INLINE                        static inline
  48:Drivers/CMSIS/Include/cmsis_gcc.h **** #endif
  49:Drivers/CMSIS/Include/cmsis_gcc.h **** #ifndef   __STATIC_FORCEINLINE
  50:Drivers/CMSIS/Include/cmsis_gcc.h ****   #define __STATIC_FORCEINLINE                   __attribute__((always_inline)) static inline
  51:Drivers/CMSIS/Include/cmsis_gcc.h **** #endif
  52:Drivers/CMSIS/Include/cmsis_gcc.h **** #ifndef   __NO_RETURN
  53:Drivers/CMSIS/Include/cmsis_gcc.h ****   #define __NO_RETURN                            __attribute__((__noreturn__))
  54:Drivers/CMSIS/Include/cmsis_gcc.h **** #endif
  55:Drivers/CMSIS/Include/cmsis_gcc.h **** #ifndef   __USED
  56:Drivers/CMSIS/Include/cmsis_gcc.h ****   #define __USED                                 __attribute__((used))
  57:Drivers/CMSIS/Include/cmsis_gcc.h **** #endif
  58:Drivers/CMSIS/Include/cmsis_gcc.h **** #ifndef   __WEAK
  59:Drivers/CMSIS/Include/cmsis_gcc.h ****   #define __WEAK                                 __attribute__((weak))
  60:Drivers/CMSIS/Include/cmsis_gcc.h **** #endif
  61:Drivers/CMSIS/Include/cmsis_gcc.h **** #ifndef   __PACKED
  62:Drivers/CMSIS/Include/cmsis_gcc.h ****   #define __PACKED                               __attribute__((packed, aligned(1)))
  63:Drivers/CMSIS/Include/cmsis_gcc.h **** #endif
  64:Drivers/CMSIS/Include/cmsis_gcc.h **** #ifndef   __PACKED_STRUCT
  65:Drivers/CMSIS/Include/cmsis_gcc.h ****   #define __PACKED_STRUCT                        struct __attribute__((packed, aligned(1)))
  66:Drivers/CMSIS/Include/cmsis_gcc.h **** #endif
  67:Drivers/CMSIS/Include/cmsis_gcc.h **** #ifndef   __PACKED_UNION
  68:Drivers/CMSIS/Include/cmsis_gcc.h ****   #define __PACKED_UNION                         union __attribute__((packed, aligned(1)))
  69:Drivers/CMSIS/Include/cmsis_gcc.h **** #endif
  70:Drivers/CMSIS/Include/cmsis_gcc.h **** #ifndef   __UNALIGNED_UINT32        /* deprecated */
  71:Drivers/CMSIS/Include/cmsis_gcc.h ****   #pragma GCC diagnostic push
  72:Drivers/CMSIS/Include/cmsis_gcc.h ****   #pragma GCC diagnostic ignored "-Wpacked"
  73:Drivers/CMSIS/Include/cmsis_gcc.h ****   #pragma GCC diagnostic ignored "-Wattributes"
  74:Drivers/CMSIS/Include/cmsis_gcc.h ****   struct __attribute__((packed)) T_UINT32 { uint32_t v; };
  75:Drivers/CMSIS/Include/cmsis_gcc.h ****   #pragma GCC diagnostic pop
  76:Drivers/CMSIS/Include/cmsis_gcc.h ****   #define __UNALIGNED_UINT32(x)                  (((struct T_UINT32 *)(x))->v)
  77:Drivers/CMSIS/Include/cmsis_gcc.h **** #endif
  78:Drivers/CMSIS/Include/cmsis_gcc.h **** #ifndef   __UNALIGNED_UINT16_WRITE
  79:Drivers/CMSIS/Include/cmsis_gcc.h ****   #pragma GCC diagnostic push
  80:Drivers/CMSIS/Include/cmsis_gcc.h ****   #pragma GCC diagnostic ignored "-Wpacked"
  81:Drivers/CMSIS/Include/cmsis_gcc.h ****   #pragma GCC diagnostic ignored "-Wattributes"
  82:Drivers/CMSIS/Include/cmsis_gcc.h ****   __PACKED_STRUCT T_UINT16_WRITE { uint16_t v; };
  83:Drivers/CMSIS/Include/cmsis_gcc.h ****   #pragma GCC diagnostic pop
  84:Drivers/CMSIS/Include/cmsis_gcc.h ****   #define __UNALIGNED_UINT16_WRITE(addr, val)    (void)((((struct T_UINT16_WRITE *)(void *)(addr))-
  85:Drivers/CMSIS/Include/cmsis_gcc.h **** #endif
  86:Drivers/CMSIS/Include/cmsis_gcc.h **** #ifndef   __UNALIGNED_UINT16_READ
  87:Drivers/CMSIS/Include/cmsis_gcc.h ****   #pragma GCC diagnostic push
  88:Drivers/CMSIS/Include/cmsis_gcc.h ****   #pragma GCC diagnostic ignored "-Wpacked"
  89:Drivers/CMSIS/Include/cmsis_gcc.h ****   #pragma GCC diagnostic ignored "-Wattributes"
  90:Drivers/CMSIS/Include/cmsis_gcc.h ****   __PACKED_STRUCT T_UINT16_READ { uint16_t v; };
  91:Drivers/CMSIS/Include/cmsis_gcc.h ****   #pragma GCC diagnostic pop
  92:Drivers/CMSIS/Include/cmsis_gcc.h ****   #define __UNALIGNED_UINT16_READ(addr)          (((const struct T_UINT16_READ *)(const void *)(add
  93:Drivers/CMSIS/Include/cmsis_gcc.h **** #endif
  94:Drivers/CMSIS/Include/cmsis_gcc.h **** #ifndef   __UNALIGNED_UINT32_WRITE
  95:Drivers/CMSIS/Include/cmsis_gcc.h ****   #pragma GCC diagnostic push
ARM GAS  C:\Users\User\AppData\Local\Temp\cciKCUxe.s 			page 25


  96:Drivers/CMSIS/Include/cmsis_gcc.h ****   #pragma GCC diagnostic ignored "-Wpacked"
  97:Drivers/CMSIS/Include/cmsis_gcc.h ****   #pragma GCC diagnostic ignored "-Wattributes"
  98:Drivers/CMSIS/Include/cmsis_gcc.h ****   __PACKED_STRUCT T_UINT32_WRITE { uint32_t v; };
  99:Drivers/CMSIS/Include/cmsis_gcc.h ****   #pragma GCC diagnostic pop
 100:Drivers/CMSIS/Include/cmsis_gcc.h ****   #define __UNALIGNED_UINT32_WRITE(addr, val)    (void)((((struct T_UINT32_WRITE *)(void *)(addr))-
 101:Drivers/CMSIS/Include/cmsis_gcc.h **** #endif
 102:Drivers/CMSIS/Include/cmsis_gcc.h **** #ifndef   __UNALIGNED_UINT32_READ
 103:Drivers/CMSIS/Include/cmsis_gcc.h ****   #pragma GCC diagnostic push
 104:Drivers/CMSIS/Include/cmsis_gcc.h ****   #pragma GCC diagnostic ignored "-Wpacked"
 105:Drivers/CMSIS/Include/cmsis_gcc.h ****   #pragma GCC diagnostic ignored "-Wattributes"
 106:Drivers/CMSIS/Include/cmsis_gcc.h ****   __PACKED_STRUCT T_UINT32_READ { uint32_t v; };
 107:Drivers/CMSIS/Include/cmsis_gcc.h ****   #pragma GCC diagnostic pop
 108:Drivers/CMSIS/Include/cmsis_gcc.h ****   #define __UNALIGNED_UINT32_READ(addr)          (((const struct T_UINT32_READ *)(const void *)(add
 109:Drivers/CMSIS/Include/cmsis_gcc.h **** #endif
 110:Drivers/CMSIS/Include/cmsis_gcc.h **** #ifndef   __ALIGNED
 111:Drivers/CMSIS/Include/cmsis_gcc.h ****   #define __ALIGNED(x)                           __attribute__((aligned(x)))
 112:Drivers/CMSIS/Include/cmsis_gcc.h **** #endif
 113:Drivers/CMSIS/Include/cmsis_gcc.h **** #ifndef   __RESTRICT
 114:Drivers/CMSIS/Include/cmsis_gcc.h ****   #define __RESTRICT                             __restrict
 115:Drivers/CMSIS/Include/cmsis_gcc.h **** #endif
 116:Drivers/CMSIS/Include/cmsis_gcc.h **** #ifndef   __COMPILER_BARRIER
 117:Drivers/CMSIS/Include/cmsis_gcc.h ****   #define __COMPILER_BARRIER()                   __ASM volatile("":::"memory")
 118:Drivers/CMSIS/Include/cmsis_gcc.h **** #endif
 119:Drivers/CMSIS/Include/cmsis_gcc.h **** 
 120:Drivers/CMSIS/Include/cmsis_gcc.h **** /* #########################  Startup and Lowlevel Init  ######################## */
 121:Drivers/CMSIS/Include/cmsis_gcc.h **** 
 122:Drivers/CMSIS/Include/cmsis_gcc.h **** #ifndef __PROGRAM_START
 123:Drivers/CMSIS/Include/cmsis_gcc.h **** 
 124:Drivers/CMSIS/Include/cmsis_gcc.h **** /**
 125:Drivers/CMSIS/Include/cmsis_gcc.h ****   \brief   Initializes data and bss sections
 126:Drivers/CMSIS/Include/cmsis_gcc.h ****   \details This default implementations initialized all data and additional bss
 127:Drivers/CMSIS/Include/cmsis_gcc.h ****            sections relying on .copy.table and .zero.table specified properly
 128:Drivers/CMSIS/Include/cmsis_gcc.h ****            in the used linker script.
 129:Drivers/CMSIS/Include/cmsis_gcc.h **** 
 130:Drivers/CMSIS/Include/cmsis_gcc.h ****  */
 131:Drivers/CMSIS/Include/cmsis_gcc.h **** __STATIC_FORCEINLINE __NO_RETURN void __cmsis_start(void)
 132:Drivers/CMSIS/Include/cmsis_gcc.h **** {
 133:Drivers/CMSIS/Include/cmsis_gcc.h ****   extern void _start(void) __NO_RETURN;
 134:Drivers/CMSIS/Include/cmsis_gcc.h **** 
 135:Drivers/CMSIS/Include/cmsis_gcc.h ****   typedef struct {
 136:Drivers/CMSIS/Include/cmsis_gcc.h ****     uint32_t const* src;
 137:Drivers/CMSIS/Include/cmsis_gcc.h ****     uint32_t* dest;
 138:Drivers/CMSIS/Include/cmsis_gcc.h ****     uint32_t  wlen;
 139:Drivers/CMSIS/Include/cmsis_gcc.h ****   } __copy_table_t;
 140:Drivers/CMSIS/Include/cmsis_gcc.h **** 
 141:Drivers/CMSIS/Include/cmsis_gcc.h ****   typedef struct {
 142:Drivers/CMSIS/Include/cmsis_gcc.h ****     uint32_t* dest;
 143:Drivers/CMSIS/Include/cmsis_gcc.h ****     uint32_t  wlen;
 144:Drivers/CMSIS/Include/cmsis_gcc.h ****   } __zero_table_t;
 145:Drivers/CMSIS/Include/cmsis_gcc.h **** 
 146:Drivers/CMSIS/Include/cmsis_gcc.h ****   extern const __copy_table_t __copy_table_start__;
 147:Drivers/CMSIS/Include/cmsis_gcc.h ****   extern const __copy_table_t __copy_table_end__;
 148:Drivers/CMSIS/Include/cmsis_gcc.h ****   extern const __zero_table_t __zero_table_start__;
 149:Drivers/CMSIS/Include/cmsis_gcc.h ****   extern const __zero_table_t __zero_table_end__;
 150:Drivers/CMSIS/Include/cmsis_gcc.h **** 
 151:Drivers/CMSIS/Include/cmsis_gcc.h ****   for (__copy_table_t const* pTable = &__copy_table_start__; pTable < &__copy_table_end__; ++pTable
 152:Drivers/CMSIS/Include/cmsis_gcc.h ****     for(uint32_t i=0u; i<pTable->wlen; ++i) {
ARM GAS  C:\Users\User\AppData\Local\Temp\cciKCUxe.s 			page 26


 153:Drivers/CMSIS/Include/cmsis_gcc.h ****       pTable->dest[i] = pTable->src[i];
 154:Drivers/CMSIS/Include/cmsis_gcc.h ****     }
 155:Drivers/CMSIS/Include/cmsis_gcc.h ****   }
 156:Drivers/CMSIS/Include/cmsis_gcc.h **** 
 157:Drivers/CMSIS/Include/cmsis_gcc.h ****   for (__zero_table_t const* pTable = &__zero_table_start__; pTable < &__zero_table_end__; ++pTable
 158:Drivers/CMSIS/Include/cmsis_gcc.h ****     for(uint32_t i=0u; i<pTable->wlen; ++i) {
 159:Drivers/CMSIS/Include/cmsis_gcc.h ****       pTable->dest[i] = 0u;
 160:Drivers/CMSIS/Include/cmsis_gcc.h ****     }
 161:Drivers/CMSIS/Include/cmsis_gcc.h ****   }
 162:Drivers/CMSIS/Include/cmsis_gcc.h **** 
 163:Drivers/CMSIS/Include/cmsis_gcc.h ****   _start();
 164:Drivers/CMSIS/Include/cmsis_gcc.h **** }
 165:Drivers/CMSIS/Include/cmsis_gcc.h **** 
 166:Drivers/CMSIS/Include/cmsis_gcc.h **** #define __PROGRAM_START           __cmsis_start
 167:Drivers/CMSIS/Include/cmsis_gcc.h **** #endif
 168:Drivers/CMSIS/Include/cmsis_gcc.h **** 
 169:Drivers/CMSIS/Include/cmsis_gcc.h **** #ifndef __INITIAL_SP
 170:Drivers/CMSIS/Include/cmsis_gcc.h **** #define __INITIAL_SP              __StackTop
 171:Drivers/CMSIS/Include/cmsis_gcc.h **** #endif
 172:Drivers/CMSIS/Include/cmsis_gcc.h **** 
 173:Drivers/CMSIS/Include/cmsis_gcc.h **** #ifndef __STACK_LIMIT
 174:Drivers/CMSIS/Include/cmsis_gcc.h **** #define __STACK_LIMIT             __StackLimit
 175:Drivers/CMSIS/Include/cmsis_gcc.h **** #endif
 176:Drivers/CMSIS/Include/cmsis_gcc.h **** 
 177:Drivers/CMSIS/Include/cmsis_gcc.h **** #ifndef __VECTOR_TABLE
 178:Drivers/CMSIS/Include/cmsis_gcc.h **** #define __VECTOR_TABLE            __Vectors
 179:Drivers/CMSIS/Include/cmsis_gcc.h **** #endif
 180:Drivers/CMSIS/Include/cmsis_gcc.h **** 
 181:Drivers/CMSIS/Include/cmsis_gcc.h **** #ifndef __VECTOR_TABLE_ATTRIBUTE
 182:Drivers/CMSIS/Include/cmsis_gcc.h **** #define __VECTOR_TABLE_ATTRIBUTE  __attribute__((used, section(".vectors")))
 183:Drivers/CMSIS/Include/cmsis_gcc.h **** #endif
 184:Drivers/CMSIS/Include/cmsis_gcc.h **** 
 185:Drivers/CMSIS/Include/cmsis_gcc.h **** #if defined (__ARM_FEATURE_CMSE) && (__ARM_FEATURE_CMSE == 3U)
 186:Drivers/CMSIS/Include/cmsis_gcc.h **** #ifndef __STACK_SEAL
 187:Drivers/CMSIS/Include/cmsis_gcc.h **** #define __STACK_SEAL              __StackSeal
 188:Drivers/CMSIS/Include/cmsis_gcc.h **** #endif
 189:Drivers/CMSIS/Include/cmsis_gcc.h **** 
 190:Drivers/CMSIS/Include/cmsis_gcc.h **** #ifndef __TZ_STACK_SEAL_SIZE
 191:Drivers/CMSIS/Include/cmsis_gcc.h **** #define __TZ_STACK_SEAL_SIZE      8U
 192:Drivers/CMSIS/Include/cmsis_gcc.h **** #endif
 193:Drivers/CMSIS/Include/cmsis_gcc.h **** 
 194:Drivers/CMSIS/Include/cmsis_gcc.h **** #ifndef __TZ_STACK_SEAL_VALUE
 195:Drivers/CMSIS/Include/cmsis_gcc.h **** #define __TZ_STACK_SEAL_VALUE     0xFEF5EDA5FEF5EDA5ULL
 196:Drivers/CMSIS/Include/cmsis_gcc.h **** #endif
 197:Drivers/CMSIS/Include/cmsis_gcc.h **** 
 198:Drivers/CMSIS/Include/cmsis_gcc.h **** 
 199:Drivers/CMSIS/Include/cmsis_gcc.h **** __STATIC_FORCEINLINE void __TZ_set_STACKSEAL_S (uint32_t* stackTop) {
 200:Drivers/CMSIS/Include/cmsis_gcc.h ****   *((uint64_t *)stackTop) = __TZ_STACK_SEAL_VALUE;
 201:Drivers/CMSIS/Include/cmsis_gcc.h **** }
 202:Drivers/CMSIS/Include/cmsis_gcc.h **** #endif
 203:Drivers/CMSIS/Include/cmsis_gcc.h **** 
 204:Drivers/CMSIS/Include/cmsis_gcc.h **** 
 205:Drivers/CMSIS/Include/cmsis_gcc.h **** /* ##########################  Core Instruction Access  ######################### */
 206:Drivers/CMSIS/Include/cmsis_gcc.h **** /** \defgroup CMSIS_Core_InstructionInterface CMSIS Core Instruction Interface
 207:Drivers/CMSIS/Include/cmsis_gcc.h ****   Access to dedicated instructions
 208:Drivers/CMSIS/Include/cmsis_gcc.h ****   @{
 209:Drivers/CMSIS/Include/cmsis_gcc.h **** */
ARM GAS  C:\Users\User\AppData\Local\Temp\cciKCUxe.s 			page 27


 210:Drivers/CMSIS/Include/cmsis_gcc.h **** 
 211:Drivers/CMSIS/Include/cmsis_gcc.h **** /* Define macros for porting to both thumb1 and thumb2.
 212:Drivers/CMSIS/Include/cmsis_gcc.h ****  * For thumb1, use low register (r0-r7), specified by constraint "l"
 213:Drivers/CMSIS/Include/cmsis_gcc.h ****  * Otherwise, use general registers, specified by constraint "r" */
 214:Drivers/CMSIS/Include/cmsis_gcc.h **** #if defined (__thumb__) && !defined (__thumb2__)
 215:Drivers/CMSIS/Include/cmsis_gcc.h **** #define __CMSIS_GCC_OUT_REG(r) "=l" (r)
 216:Drivers/CMSIS/Include/cmsis_gcc.h **** #define __CMSIS_GCC_RW_REG(r) "+l" (r)
 217:Drivers/CMSIS/Include/cmsis_gcc.h **** #define __CMSIS_GCC_USE_REG(r) "l" (r)
 218:Drivers/CMSIS/Include/cmsis_gcc.h **** #else
 219:Drivers/CMSIS/Include/cmsis_gcc.h **** #define __CMSIS_GCC_OUT_REG(r) "=r" (r)
 220:Drivers/CMSIS/Include/cmsis_gcc.h **** #define __CMSIS_GCC_RW_REG(r) "+r" (r)
 221:Drivers/CMSIS/Include/cmsis_gcc.h **** #define __CMSIS_GCC_USE_REG(r) "r" (r)
 222:Drivers/CMSIS/Include/cmsis_gcc.h **** #endif
 223:Drivers/CMSIS/Include/cmsis_gcc.h **** 
 224:Drivers/CMSIS/Include/cmsis_gcc.h **** /**
 225:Drivers/CMSIS/Include/cmsis_gcc.h ****   \brief   No Operation
 226:Drivers/CMSIS/Include/cmsis_gcc.h ****   \details No Operation does nothing. This instruction can be used for code alignment purposes.
 227:Drivers/CMSIS/Include/cmsis_gcc.h ****  */
 228:Drivers/CMSIS/Include/cmsis_gcc.h **** #define __NOP()                             __ASM volatile ("nop")
 229:Drivers/CMSIS/Include/cmsis_gcc.h **** 
 230:Drivers/CMSIS/Include/cmsis_gcc.h **** /**
 231:Drivers/CMSIS/Include/cmsis_gcc.h ****   \brief   Wait For Interrupt
 232:Drivers/CMSIS/Include/cmsis_gcc.h ****   \details Wait For Interrupt is a hint instruction that suspends execution until one of a number o
 233:Drivers/CMSIS/Include/cmsis_gcc.h ****  */
 234:Drivers/CMSIS/Include/cmsis_gcc.h **** #define __WFI()                             __ASM volatile ("wfi":::"memory")
 235:Drivers/CMSIS/Include/cmsis_gcc.h **** 
 236:Drivers/CMSIS/Include/cmsis_gcc.h **** 
 237:Drivers/CMSIS/Include/cmsis_gcc.h **** /**
 238:Drivers/CMSIS/Include/cmsis_gcc.h ****   \brief   Wait For Event
 239:Drivers/CMSIS/Include/cmsis_gcc.h ****   \details Wait For Event is a hint instruction that permits the processor to enter
 240:Drivers/CMSIS/Include/cmsis_gcc.h ****            a low-power state until one of a number of events occurs.
 241:Drivers/CMSIS/Include/cmsis_gcc.h ****  */
 242:Drivers/CMSIS/Include/cmsis_gcc.h **** #define __WFE()                             __ASM volatile ("wfe":::"memory")
 243:Drivers/CMSIS/Include/cmsis_gcc.h **** 
 244:Drivers/CMSIS/Include/cmsis_gcc.h **** 
 245:Drivers/CMSIS/Include/cmsis_gcc.h **** /**
 246:Drivers/CMSIS/Include/cmsis_gcc.h ****   \brief   Send Event
 247:Drivers/CMSIS/Include/cmsis_gcc.h ****   \details Send Event is a hint instruction. It causes an event to be signaled to the CPU.
 248:Drivers/CMSIS/Include/cmsis_gcc.h ****  */
 249:Drivers/CMSIS/Include/cmsis_gcc.h **** #define __SEV()                             __ASM volatile ("sev")
 250:Drivers/CMSIS/Include/cmsis_gcc.h **** 
 251:Drivers/CMSIS/Include/cmsis_gcc.h **** 
 252:Drivers/CMSIS/Include/cmsis_gcc.h **** /**
 253:Drivers/CMSIS/Include/cmsis_gcc.h ****   \brief   Instruction Synchronization Barrier
 254:Drivers/CMSIS/Include/cmsis_gcc.h ****   \details Instruction Synchronization Barrier flushes the pipeline in the processor,
 255:Drivers/CMSIS/Include/cmsis_gcc.h ****            so that all instructions following the ISB are fetched from cache or memory,
 256:Drivers/CMSIS/Include/cmsis_gcc.h ****            after the instruction has been completed.
 257:Drivers/CMSIS/Include/cmsis_gcc.h ****  */
 258:Drivers/CMSIS/Include/cmsis_gcc.h **** __STATIC_FORCEINLINE void __ISB(void)
 259:Drivers/CMSIS/Include/cmsis_gcc.h **** {
 260:Drivers/CMSIS/Include/cmsis_gcc.h ****   __ASM volatile ("isb 0xF":::"memory");
 261:Drivers/CMSIS/Include/cmsis_gcc.h **** }
 262:Drivers/CMSIS/Include/cmsis_gcc.h **** 
 263:Drivers/CMSIS/Include/cmsis_gcc.h **** 
 264:Drivers/CMSIS/Include/cmsis_gcc.h **** /**
 265:Drivers/CMSIS/Include/cmsis_gcc.h ****   \brief   Data Synchronization Barrier
 266:Drivers/CMSIS/Include/cmsis_gcc.h ****   \details Acts as a special kind of Data Memory Barrier.
ARM GAS  C:\Users\User\AppData\Local\Temp\cciKCUxe.s 			page 28


 267:Drivers/CMSIS/Include/cmsis_gcc.h ****            It completes when all explicit memory accesses before this instruction complete.
 268:Drivers/CMSIS/Include/cmsis_gcc.h ****  */
 269:Drivers/CMSIS/Include/cmsis_gcc.h **** __STATIC_FORCEINLINE void __DSB(void)
 270:Drivers/CMSIS/Include/cmsis_gcc.h **** {
 271:Drivers/CMSIS/Include/cmsis_gcc.h ****   __ASM volatile ("dsb 0xF":::"memory");
 272:Drivers/CMSIS/Include/cmsis_gcc.h **** }
 273:Drivers/CMSIS/Include/cmsis_gcc.h **** 
 274:Drivers/CMSIS/Include/cmsis_gcc.h **** 
 275:Drivers/CMSIS/Include/cmsis_gcc.h **** /**
 276:Drivers/CMSIS/Include/cmsis_gcc.h ****   \brief   Data Memory Barrier
 277:Drivers/CMSIS/Include/cmsis_gcc.h ****   \details Ensures the apparent order of the explicit memory operations before
 278:Drivers/CMSIS/Include/cmsis_gcc.h ****            and after the instruction, without ensuring their completion.
 279:Drivers/CMSIS/Include/cmsis_gcc.h ****  */
 280:Drivers/CMSIS/Include/cmsis_gcc.h **** __STATIC_FORCEINLINE void __DMB(void)
 281:Drivers/CMSIS/Include/cmsis_gcc.h **** {
 282:Drivers/CMSIS/Include/cmsis_gcc.h ****   __ASM volatile ("dmb 0xF":::"memory");
 283:Drivers/CMSIS/Include/cmsis_gcc.h **** }
 284:Drivers/CMSIS/Include/cmsis_gcc.h **** 
 285:Drivers/CMSIS/Include/cmsis_gcc.h **** 
 286:Drivers/CMSIS/Include/cmsis_gcc.h **** /**
 287:Drivers/CMSIS/Include/cmsis_gcc.h ****   \brief   Reverse byte order (32 bit)
 288:Drivers/CMSIS/Include/cmsis_gcc.h ****   \details Reverses the byte order in unsigned integer value. For example, 0x12345678 becomes 0x785
 289:Drivers/CMSIS/Include/cmsis_gcc.h ****   \param [in]    value  Value to reverse
 290:Drivers/CMSIS/Include/cmsis_gcc.h ****   \return               Reversed value
 291:Drivers/CMSIS/Include/cmsis_gcc.h ****  */
 292:Drivers/CMSIS/Include/cmsis_gcc.h **** __STATIC_FORCEINLINE uint32_t __REV(uint32_t value)
 293:Drivers/CMSIS/Include/cmsis_gcc.h **** {
 294:Drivers/CMSIS/Include/cmsis_gcc.h **** #if (__GNUC__ > 4) || (__GNUC__ == 4 && __GNUC_MINOR__ >= 5)
 295:Drivers/CMSIS/Include/cmsis_gcc.h ****   return __builtin_bswap32(value);
 296:Drivers/CMSIS/Include/cmsis_gcc.h **** #else
 297:Drivers/CMSIS/Include/cmsis_gcc.h ****   uint32_t result;
 298:Drivers/CMSIS/Include/cmsis_gcc.h **** 
 299:Drivers/CMSIS/Include/cmsis_gcc.h ****   __ASM ("rev %0, %1" : __CMSIS_GCC_OUT_REG (result) : __CMSIS_GCC_USE_REG (value) );
 300:Drivers/CMSIS/Include/cmsis_gcc.h ****   return result;
 301:Drivers/CMSIS/Include/cmsis_gcc.h **** #endif
 302:Drivers/CMSIS/Include/cmsis_gcc.h **** }
 303:Drivers/CMSIS/Include/cmsis_gcc.h **** 
 304:Drivers/CMSIS/Include/cmsis_gcc.h **** 
 305:Drivers/CMSIS/Include/cmsis_gcc.h **** /**
 306:Drivers/CMSIS/Include/cmsis_gcc.h ****   \brief   Reverse byte order (16 bit)
 307:Drivers/CMSIS/Include/cmsis_gcc.h ****   \details Reverses the byte order within each halfword of a word. For example, 0x12345678 becomes 
 308:Drivers/CMSIS/Include/cmsis_gcc.h ****   \param [in]    value  Value to reverse
 309:Drivers/CMSIS/Include/cmsis_gcc.h ****   \return               Reversed value
 310:Drivers/CMSIS/Include/cmsis_gcc.h ****  */
 311:Drivers/CMSIS/Include/cmsis_gcc.h **** __STATIC_FORCEINLINE uint32_t __REV16(uint32_t value)
 312:Drivers/CMSIS/Include/cmsis_gcc.h **** {
 313:Drivers/CMSIS/Include/cmsis_gcc.h ****   uint32_t result;
 314:Drivers/CMSIS/Include/cmsis_gcc.h **** 
 315:Drivers/CMSIS/Include/cmsis_gcc.h ****   __ASM ("rev16 %0, %1" : __CMSIS_GCC_OUT_REG (result) : __CMSIS_GCC_USE_REG (value) );
 316:Drivers/CMSIS/Include/cmsis_gcc.h ****   return result;
 317:Drivers/CMSIS/Include/cmsis_gcc.h **** }
 318:Drivers/CMSIS/Include/cmsis_gcc.h **** 
 319:Drivers/CMSIS/Include/cmsis_gcc.h **** 
 320:Drivers/CMSIS/Include/cmsis_gcc.h **** /**
 321:Drivers/CMSIS/Include/cmsis_gcc.h ****   \brief   Reverse byte order (16 bit)
 322:Drivers/CMSIS/Include/cmsis_gcc.h ****   \details Reverses the byte order in a 16-bit value and returns the signed 16-bit result. For exam
 323:Drivers/CMSIS/Include/cmsis_gcc.h ****   \param [in]    value  Value to reverse
ARM GAS  C:\Users\User\AppData\Local\Temp\cciKCUxe.s 			page 29


 324:Drivers/CMSIS/Include/cmsis_gcc.h ****   \return               Reversed value
 325:Drivers/CMSIS/Include/cmsis_gcc.h ****  */
 326:Drivers/CMSIS/Include/cmsis_gcc.h **** __STATIC_FORCEINLINE int16_t __REVSH(int16_t value)
 327:Drivers/CMSIS/Include/cmsis_gcc.h **** {
 328:Drivers/CMSIS/Include/cmsis_gcc.h **** #if (__GNUC__ > 4) || (__GNUC__ == 4 && __GNUC_MINOR__ >= 8)
 329:Drivers/CMSIS/Include/cmsis_gcc.h ****   return (int16_t)__builtin_bswap16(value);
 330:Drivers/CMSIS/Include/cmsis_gcc.h **** #else
 331:Drivers/CMSIS/Include/cmsis_gcc.h ****   int16_t result;
 332:Drivers/CMSIS/Include/cmsis_gcc.h **** 
 333:Drivers/CMSIS/Include/cmsis_gcc.h ****   __ASM ("revsh %0, %1" : __CMSIS_GCC_OUT_REG (result) : __CMSIS_GCC_USE_REG (value) );
 334:Drivers/CMSIS/Include/cmsis_gcc.h ****   return result;
 335:Drivers/CMSIS/Include/cmsis_gcc.h **** #endif
 336:Drivers/CMSIS/Include/cmsis_gcc.h **** }
 337:Drivers/CMSIS/Include/cmsis_gcc.h **** 
 338:Drivers/CMSIS/Include/cmsis_gcc.h **** 
 339:Drivers/CMSIS/Include/cmsis_gcc.h **** /**
 340:Drivers/CMSIS/Include/cmsis_gcc.h ****   \brief   Rotate Right in unsigned value (32 bit)
 341:Drivers/CMSIS/Include/cmsis_gcc.h ****   \details Rotate Right (immediate) provides the value of the contents of a register rotated by a v
 342:Drivers/CMSIS/Include/cmsis_gcc.h ****   \param [in]    op1  Value to rotate
 343:Drivers/CMSIS/Include/cmsis_gcc.h ****   \param [in]    op2  Number of Bits to rotate
 344:Drivers/CMSIS/Include/cmsis_gcc.h ****   \return               Rotated value
 345:Drivers/CMSIS/Include/cmsis_gcc.h ****  */
 346:Drivers/CMSIS/Include/cmsis_gcc.h **** __STATIC_FORCEINLINE uint32_t __ROR(uint32_t op1, uint32_t op2)
 347:Drivers/CMSIS/Include/cmsis_gcc.h **** {
 348:Drivers/CMSIS/Include/cmsis_gcc.h ****   op2 %= 32U;
 349:Drivers/CMSIS/Include/cmsis_gcc.h ****   if (op2 == 0U)
 350:Drivers/CMSIS/Include/cmsis_gcc.h ****   {
 351:Drivers/CMSIS/Include/cmsis_gcc.h ****     return op1;
 352:Drivers/CMSIS/Include/cmsis_gcc.h ****   }
 353:Drivers/CMSIS/Include/cmsis_gcc.h ****   return (op1 >> op2) | (op1 << (32U - op2));
 354:Drivers/CMSIS/Include/cmsis_gcc.h **** }
 355:Drivers/CMSIS/Include/cmsis_gcc.h **** 
 356:Drivers/CMSIS/Include/cmsis_gcc.h **** 
 357:Drivers/CMSIS/Include/cmsis_gcc.h **** /**
 358:Drivers/CMSIS/Include/cmsis_gcc.h ****   \brief   Breakpoint
 359:Drivers/CMSIS/Include/cmsis_gcc.h ****   \details Causes the processor to enter Debug state.
 360:Drivers/CMSIS/Include/cmsis_gcc.h ****            Debug tools can use this to investigate system state when the instruction at a particula
 361:Drivers/CMSIS/Include/cmsis_gcc.h ****   \param [in]    value  is ignored by the processor.
 362:Drivers/CMSIS/Include/cmsis_gcc.h ****                  If required, a debugger can use it to store additional information about the break
 363:Drivers/CMSIS/Include/cmsis_gcc.h ****  */
 364:Drivers/CMSIS/Include/cmsis_gcc.h **** #define __BKPT(value)                       __ASM volatile ("bkpt "#value)
 365:Drivers/CMSIS/Include/cmsis_gcc.h **** 
 366:Drivers/CMSIS/Include/cmsis_gcc.h **** 
 367:Drivers/CMSIS/Include/cmsis_gcc.h **** /**
 368:Drivers/CMSIS/Include/cmsis_gcc.h ****   \brief   Reverse bit order of value
 369:Drivers/CMSIS/Include/cmsis_gcc.h ****   \details Reverses the bit order of the given value.
 370:Drivers/CMSIS/Include/cmsis_gcc.h ****   \param [in]    value  Value to reverse
 371:Drivers/CMSIS/Include/cmsis_gcc.h ****   \return               Reversed value
 372:Drivers/CMSIS/Include/cmsis_gcc.h ****  */
 373:Drivers/CMSIS/Include/cmsis_gcc.h **** __STATIC_FORCEINLINE uint32_t __RBIT(uint32_t value)
 374:Drivers/CMSIS/Include/cmsis_gcc.h **** {
 375:Drivers/CMSIS/Include/cmsis_gcc.h ****   uint32_t result;
 376:Drivers/CMSIS/Include/cmsis_gcc.h **** 
 377:Drivers/CMSIS/Include/cmsis_gcc.h **** #if ((defined (__ARM_ARCH_7M__      ) && (__ARM_ARCH_7M__      == 1)) || \
 378:Drivers/CMSIS/Include/cmsis_gcc.h ****      (defined (__ARM_ARCH_7EM__     ) && (__ARM_ARCH_7EM__     == 1)) || \
 379:Drivers/CMSIS/Include/cmsis_gcc.h ****      (defined (__ARM_ARCH_8M_MAIN__ ) && (__ARM_ARCH_8M_MAIN__ == 1))    )
 380:Drivers/CMSIS/Include/cmsis_gcc.h ****    __ASM ("rbit %0, %1" : "=r" (result) : "r" (value) );
ARM GAS  C:\Users\User\AppData\Local\Temp\cciKCUxe.s 			page 30


 381:Drivers/CMSIS/Include/cmsis_gcc.h **** #else
 382:Drivers/CMSIS/Include/cmsis_gcc.h ****   uint32_t s = (4U /*sizeof(v)*/ * 8U) - 1U; /* extra shift needed at end */
 383:Drivers/CMSIS/Include/cmsis_gcc.h **** 
 384:Drivers/CMSIS/Include/cmsis_gcc.h ****   result = value;                      /* r will be reversed bits of v; first get LSB of v */
 385:Drivers/CMSIS/Include/cmsis_gcc.h ****   for (value >>= 1U; value != 0U; value >>= 1U)
 386:Drivers/CMSIS/Include/cmsis_gcc.h ****   {
 387:Drivers/CMSIS/Include/cmsis_gcc.h ****     result <<= 1U;
 388:Drivers/CMSIS/Include/cmsis_gcc.h ****     result |= value & 1U;
 389:Drivers/CMSIS/Include/cmsis_gcc.h ****     s--;
 390:Drivers/CMSIS/Include/cmsis_gcc.h ****   }
 391:Drivers/CMSIS/Include/cmsis_gcc.h ****   result <<= s;                        /* shift when v's highest bits are zero */
 392:Drivers/CMSIS/Include/cmsis_gcc.h **** #endif
 393:Drivers/CMSIS/Include/cmsis_gcc.h ****   return result;
 394:Drivers/CMSIS/Include/cmsis_gcc.h **** }
 395:Drivers/CMSIS/Include/cmsis_gcc.h **** 
 396:Drivers/CMSIS/Include/cmsis_gcc.h **** 
 397:Drivers/CMSIS/Include/cmsis_gcc.h **** /**
 398:Drivers/CMSIS/Include/cmsis_gcc.h ****   \brief   Count leading zeros
 399:Drivers/CMSIS/Include/cmsis_gcc.h ****   \details Counts the number of leading zeros of a data value.
 400:Drivers/CMSIS/Include/cmsis_gcc.h ****   \param [in]  value  Value to count the leading zeros
 401:Drivers/CMSIS/Include/cmsis_gcc.h ****   \return             number of leading zeros in value
 402:Drivers/CMSIS/Include/cmsis_gcc.h ****  */
 403:Drivers/CMSIS/Include/cmsis_gcc.h **** __STATIC_FORCEINLINE uint8_t __CLZ(uint32_t value)
 404:Drivers/CMSIS/Include/cmsis_gcc.h **** {
 405:Drivers/CMSIS/Include/cmsis_gcc.h ****   /* Even though __builtin_clz produces a CLZ instruction on ARM, formally
 406:Drivers/CMSIS/Include/cmsis_gcc.h ****      __builtin_clz(0) is undefined behaviour, so handle this case specially.
 407:Drivers/CMSIS/Include/cmsis_gcc.h ****      This guarantees ARM-compatible results if happening to compile on a non-ARM
 408:Drivers/CMSIS/Include/cmsis_gcc.h ****      target, and ensures the compiler doesn't decide to activate any
 409:Drivers/CMSIS/Include/cmsis_gcc.h ****      optimisations using the logic "value was passed to __builtin_clz, so it
 410:Drivers/CMSIS/Include/cmsis_gcc.h ****      is non-zero".
 411:Drivers/CMSIS/Include/cmsis_gcc.h ****      ARM GCC 7.3 and possibly earlier will optimise this test away, leaving a
 412:Drivers/CMSIS/Include/cmsis_gcc.h ****      single CLZ instruction.
 413:Drivers/CMSIS/Include/cmsis_gcc.h ****    */
 414:Drivers/CMSIS/Include/cmsis_gcc.h ****   if (value == 0U)
 415:Drivers/CMSIS/Include/cmsis_gcc.h ****   {
 416:Drivers/CMSIS/Include/cmsis_gcc.h ****     return 32U;
 417:Drivers/CMSIS/Include/cmsis_gcc.h ****   }
 418:Drivers/CMSIS/Include/cmsis_gcc.h ****   return __builtin_clz(value);
 419:Drivers/CMSIS/Include/cmsis_gcc.h **** }
 420:Drivers/CMSIS/Include/cmsis_gcc.h **** 
 421:Drivers/CMSIS/Include/cmsis_gcc.h **** 
 422:Drivers/CMSIS/Include/cmsis_gcc.h **** #if ((defined (__ARM_ARCH_7M__      ) && (__ARM_ARCH_7M__      == 1)) || \
 423:Drivers/CMSIS/Include/cmsis_gcc.h ****      (defined (__ARM_ARCH_7EM__     ) && (__ARM_ARCH_7EM__     == 1)) || \
 424:Drivers/CMSIS/Include/cmsis_gcc.h ****      (defined (__ARM_ARCH_8M_MAIN__ ) && (__ARM_ARCH_8M_MAIN__ == 1)) || \
 425:Drivers/CMSIS/Include/cmsis_gcc.h ****      (defined (__ARM_ARCH_8M_BASE__ ) && (__ARM_ARCH_8M_BASE__ == 1))    )
 426:Drivers/CMSIS/Include/cmsis_gcc.h **** /**
 427:Drivers/CMSIS/Include/cmsis_gcc.h ****   \brief   LDR Exclusive (8 bit)
 428:Drivers/CMSIS/Include/cmsis_gcc.h ****   \details Executes a exclusive LDR instruction for 8 bit value.
 429:Drivers/CMSIS/Include/cmsis_gcc.h ****   \param [in]    ptr  Pointer to data
 430:Drivers/CMSIS/Include/cmsis_gcc.h ****   \return             value of type uint8_t at (*ptr)
 431:Drivers/CMSIS/Include/cmsis_gcc.h ****  */
 432:Drivers/CMSIS/Include/cmsis_gcc.h **** __STATIC_FORCEINLINE uint8_t __LDREXB(volatile uint8_t *addr)
 433:Drivers/CMSIS/Include/cmsis_gcc.h **** {
 434:Drivers/CMSIS/Include/cmsis_gcc.h ****     uint32_t result;
 435:Drivers/CMSIS/Include/cmsis_gcc.h **** 
 436:Drivers/CMSIS/Include/cmsis_gcc.h **** #if (__GNUC__ > 4) || (__GNUC__ == 4 && __GNUC_MINOR__ >= 8)
 437:Drivers/CMSIS/Include/cmsis_gcc.h ****    __ASM volatile ("ldrexb %0, %1" : "=r" (result) : "Q" (*addr) );
ARM GAS  C:\Users\User\AppData\Local\Temp\cciKCUxe.s 			page 31


 438:Drivers/CMSIS/Include/cmsis_gcc.h **** #else
 439:Drivers/CMSIS/Include/cmsis_gcc.h ****     /* Prior to GCC 4.8, "Q" will be expanded to [rx, #0] which is not
 440:Drivers/CMSIS/Include/cmsis_gcc.h ****        accepted by assembler. So has to use following less efficient pattern.
 441:Drivers/CMSIS/Include/cmsis_gcc.h ****     */
 442:Drivers/CMSIS/Include/cmsis_gcc.h ****    __ASM volatile ("ldrexb %0, [%1]" : "=r" (result) : "r" (addr) : "memory" );
 443:Drivers/CMSIS/Include/cmsis_gcc.h **** #endif
 444:Drivers/CMSIS/Include/cmsis_gcc.h ****    return ((uint8_t) result);    /* Add explicit type cast here */
 445:Drivers/CMSIS/Include/cmsis_gcc.h **** }
 446:Drivers/CMSIS/Include/cmsis_gcc.h **** 
 447:Drivers/CMSIS/Include/cmsis_gcc.h **** 
 448:Drivers/CMSIS/Include/cmsis_gcc.h **** /**
 449:Drivers/CMSIS/Include/cmsis_gcc.h ****   \brief   LDR Exclusive (16 bit)
 450:Drivers/CMSIS/Include/cmsis_gcc.h ****   \details Executes a exclusive LDR instruction for 16 bit values.
 451:Drivers/CMSIS/Include/cmsis_gcc.h ****   \param [in]    ptr  Pointer to data
 452:Drivers/CMSIS/Include/cmsis_gcc.h ****   \return        value of type uint16_t at (*ptr)
 453:Drivers/CMSIS/Include/cmsis_gcc.h ****  */
 454:Drivers/CMSIS/Include/cmsis_gcc.h **** __STATIC_FORCEINLINE uint16_t __LDREXH(volatile uint16_t *addr)
 455:Drivers/CMSIS/Include/cmsis_gcc.h **** {
 456:Drivers/CMSIS/Include/cmsis_gcc.h ****     uint32_t result;
 457:Drivers/CMSIS/Include/cmsis_gcc.h **** 
 458:Drivers/CMSIS/Include/cmsis_gcc.h **** #if (__GNUC__ > 4) || (__GNUC__ == 4 && __GNUC_MINOR__ >= 8)
 459:Drivers/CMSIS/Include/cmsis_gcc.h ****    __ASM volatile ("ldrexh %0, %1" : "=r" (result) : "Q" (*addr) );
 460:Drivers/CMSIS/Include/cmsis_gcc.h **** #else
 461:Drivers/CMSIS/Include/cmsis_gcc.h ****     /* Prior to GCC 4.8, "Q" will be expanded to [rx, #0] which is not
 462:Drivers/CMSIS/Include/cmsis_gcc.h ****        accepted by assembler. So has to use following less efficient pattern.
 463:Drivers/CMSIS/Include/cmsis_gcc.h ****     */
 464:Drivers/CMSIS/Include/cmsis_gcc.h ****    __ASM volatile ("ldrexh %0, [%1]" : "=r" (result) : "r" (addr) : "memory" );
 465:Drivers/CMSIS/Include/cmsis_gcc.h **** #endif
 466:Drivers/CMSIS/Include/cmsis_gcc.h ****    return ((uint16_t) result);    /* Add explicit type cast here */
 467:Drivers/CMSIS/Include/cmsis_gcc.h **** }
 468:Drivers/CMSIS/Include/cmsis_gcc.h **** 
 469:Drivers/CMSIS/Include/cmsis_gcc.h **** 
 470:Drivers/CMSIS/Include/cmsis_gcc.h **** /**
 471:Drivers/CMSIS/Include/cmsis_gcc.h ****   \brief   LDR Exclusive (32 bit)
 472:Drivers/CMSIS/Include/cmsis_gcc.h ****   \details Executes a exclusive LDR instruction for 32 bit values.
 473:Drivers/CMSIS/Include/cmsis_gcc.h ****   \param [in]    ptr  Pointer to data
 474:Drivers/CMSIS/Include/cmsis_gcc.h ****   \return        value of type uint32_t at (*ptr)
 475:Drivers/CMSIS/Include/cmsis_gcc.h ****  */
 476:Drivers/CMSIS/Include/cmsis_gcc.h **** __STATIC_FORCEINLINE uint32_t __LDREXW(volatile uint32_t *addr)
 477:Drivers/CMSIS/Include/cmsis_gcc.h **** {
 478:Drivers/CMSIS/Include/cmsis_gcc.h ****     uint32_t result;
 479:Drivers/CMSIS/Include/cmsis_gcc.h **** 
 480:Drivers/CMSIS/Include/cmsis_gcc.h ****    __ASM volatile ("ldrex %0, %1" : "=r" (result) : "Q" (*addr) );
 481:Drivers/CMSIS/Include/cmsis_gcc.h ****    return(result);
 482:Drivers/CMSIS/Include/cmsis_gcc.h **** }
 483:Drivers/CMSIS/Include/cmsis_gcc.h **** 
 484:Drivers/CMSIS/Include/cmsis_gcc.h **** 
 485:Drivers/CMSIS/Include/cmsis_gcc.h **** /**
 486:Drivers/CMSIS/Include/cmsis_gcc.h ****   \brief   STR Exclusive (8 bit)
 487:Drivers/CMSIS/Include/cmsis_gcc.h ****   \details Executes a exclusive STR instruction for 8 bit values.
 488:Drivers/CMSIS/Include/cmsis_gcc.h ****   \param [in]  value  Value to store
 489:Drivers/CMSIS/Include/cmsis_gcc.h ****   \param [in]    ptr  Pointer to location
 490:Drivers/CMSIS/Include/cmsis_gcc.h ****   \return          0  Function succeeded
 491:Drivers/CMSIS/Include/cmsis_gcc.h ****   \return          1  Function failed
 492:Drivers/CMSIS/Include/cmsis_gcc.h ****  */
 493:Drivers/CMSIS/Include/cmsis_gcc.h **** __STATIC_FORCEINLINE uint32_t __STREXB(uint8_t value, volatile uint8_t *addr)
 494:Drivers/CMSIS/Include/cmsis_gcc.h **** {
ARM GAS  C:\Users\User\AppData\Local\Temp\cciKCUxe.s 			page 32


 495:Drivers/CMSIS/Include/cmsis_gcc.h ****    uint32_t result;
 496:Drivers/CMSIS/Include/cmsis_gcc.h **** 
 497:Drivers/CMSIS/Include/cmsis_gcc.h ****    __ASM volatile ("strexb %0, %2, %1" : "=&r" (result), "=Q" (*addr) : "r" ((uint32_t)value) );
 498:Drivers/CMSIS/Include/cmsis_gcc.h ****    return(result);
 499:Drivers/CMSIS/Include/cmsis_gcc.h **** }
 500:Drivers/CMSIS/Include/cmsis_gcc.h **** 
 501:Drivers/CMSIS/Include/cmsis_gcc.h **** 
 502:Drivers/CMSIS/Include/cmsis_gcc.h **** /**
 503:Drivers/CMSIS/Include/cmsis_gcc.h ****   \brief   STR Exclusive (16 bit)
 504:Drivers/CMSIS/Include/cmsis_gcc.h ****   \details Executes a exclusive STR instruction for 16 bit values.
 505:Drivers/CMSIS/Include/cmsis_gcc.h ****   \param [in]  value  Value to store
 506:Drivers/CMSIS/Include/cmsis_gcc.h ****   \param [in]    ptr  Pointer to location
 507:Drivers/CMSIS/Include/cmsis_gcc.h ****   \return          0  Function succeeded
 508:Drivers/CMSIS/Include/cmsis_gcc.h ****   \return          1  Function failed
 509:Drivers/CMSIS/Include/cmsis_gcc.h ****  */
 510:Drivers/CMSIS/Include/cmsis_gcc.h **** __STATIC_FORCEINLINE uint32_t __STREXH(uint16_t value, volatile uint16_t *addr)
 511:Drivers/CMSIS/Include/cmsis_gcc.h **** {
 512:Drivers/CMSIS/Include/cmsis_gcc.h ****    uint32_t result;
 513:Drivers/CMSIS/Include/cmsis_gcc.h **** 
 514:Drivers/CMSIS/Include/cmsis_gcc.h ****    __ASM volatile ("strexh %0, %2, %1" : "=&r" (result), "=Q" (*addr) : "r" ((uint32_t)value) );
 515:Drivers/CMSIS/Include/cmsis_gcc.h ****    return(result);
 516:Drivers/CMSIS/Include/cmsis_gcc.h **** }
 517:Drivers/CMSIS/Include/cmsis_gcc.h **** 
 518:Drivers/CMSIS/Include/cmsis_gcc.h **** 
 519:Drivers/CMSIS/Include/cmsis_gcc.h **** /**
 520:Drivers/CMSIS/Include/cmsis_gcc.h ****   \brief   STR Exclusive (32 bit)
 521:Drivers/CMSIS/Include/cmsis_gcc.h ****   \details Executes a exclusive STR instruction for 32 bit values.
 522:Drivers/CMSIS/Include/cmsis_gcc.h ****   \param [in]  value  Value to store
 523:Drivers/CMSIS/Include/cmsis_gcc.h ****   \param [in]    ptr  Pointer to location
 524:Drivers/CMSIS/Include/cmsis_gcc.h ****   \return          0  Function succeeded
 525:Drivers/CMSIS/Include/cmsis_gcc.h ****   \return          1  Function failed
 526:Drivers/CMSIS/Include/cmsis_gcc.h ****  */
 527:Drivers/CMSIS/Include/cmsis_gcc.h **** __STATIC_FORCEINLINE uint32_t __STREXW(uint32_t value, volatile uint32_t *addr)
 528:Drivers/CMSIS/Include/cmsis_gcc.h **** {
 529:Drivers/CMSIS/Include/cmsis_gcc.h ****    uint32_t result;
 530:Drivers/CMSIS/Include/cmsis_gcc.h **** 
 531:Drivers/CMSIS/Include/cmsis_gcc.h ****    __ASM volatile ("strex %0, %2, %1" : "=&r" (result), "=Q" (*addr) : "r" (value) );
 532:Drivers/CMSIS/Include/cmsis_gcc.h ****    return(result);
 533:Drivers/CMSIS/Include/cmsis_gcc.h **** }
 534:Drivers/CMSIS/Include/cmsis_gcc.h **** 
 535:Drivers/CMSIS/Include/cmsis_gcc.h **** 
 536:Drivers/CMSIS/Include/cmsis_gcc.h **** /**
 537:Drivers/CMSIS/Include/cmsis_gcc.h ****   \brief   Remove the exclusive lock
 538:Drivers/CMSIS/Include/cmsis_gcc.h ****   \details Removes the exclusive lock which is created by LDREX.
 539:Drivers/CMSIS/Include/cmsis_gcc.h ****  */
 540:Drivers/CMSIS/Include/cmsis_gcc.h **** __STATIC_FORCEINLINE void __CLREX(void)
 541:Drivers/CMSIS/Include/cmsis_gcc.h **** {
 542:Drivers/CMSIS/Include/cmsis_gcc.h ****   __ASM volatile ("clrex" ::: "memory");
 543:Drivers/CMSIS/Include/cmsis_gcc.h **** }
 544:Drivers/CMSIS/Include/cmsis_gcc.h **** 
 545:Drivers/CMSIS/Include/cmsis_gcc.h **** #endif /* ((defined (__ARM_ARCH_7M__      ) && (__ARM_ARCH_7M__      == 1)) || \
 546:Drivers/CMSIS/Include/cmsis_gcc.h ****            (defined (__ARM_ARCH_7EM__     ) && (__ARM_ARCH_7EM__     == 1)) || \
 547:Drivers/CMSIS/Include/cmsis_gcc.h ****            (defined (__ARM_ARCH_8M_MAIN__ ) && (__ARM_ARCH_8M_MAIN__ == 1)) || \
 548:Drivers/CMSIS/Include/cmsis_gcc.h ****            (defined (__ARM_ARCH_8M_BASE__ ) && (__ARM_ARCH_8M_BASE__ == 1))    ) */
 549:Drivers/CMSIS/Include/cmsis_gcc.h **** 
 550:Drivers/CMSIS/Include/cmsis_gcc.h **** 
 551:Drivers/CMSIS/Include/cmsis_gcc.h **** #if ((defined (__ARM_ARCH_7M__      ) && (__ARM_ARCH_7M__      == 1)) || \
ARM GAS  C:\Users\User\AppData\Local\Temp\cciKCUxe.s 			page 33


 552:Drivers/CMSIS/Include/cmsis_gcc.h ****      (defined (__ARM_ARCH_7EM__     ) && (__ARM_ARCH_7EM__     == 1)) || \
 553:Drivers/CMSIS/Include/cmsis_gcc.h ****      (defined (__ARM_ARCH_8M_MAIN__ ) && (__ARM_ARCH_8M_MAIN__ == 1))    )
 554:Drivers/CMSIS/Include/cmsis_gcc.h **** /**
 555:Drivers/CMSIS/Include/cmsis_gcc.h ****   \brief   Signed Saturate
 556:Drivers/CMSIS/Include/cmsis_gcc.h ****   \details Saturates a signed value.
 557:Drivers/CMSIS/Include/cmsis_gcc.h ****   \param [in]  ARG1  Value to be saturated
 558:Drivers/CMSIS/Include/cmsis_gcc.h ****   \param [in]  ARG2  Bit position to saturate to (1..32)
 559:Drivers/CMSIS/Include/cmsis_gcc.h ****   \return             Saturated value
 560:Drivers/CMSIS/Include/cmsis_gcc.h ****  */
 561:Drivers/CMSIS/Include/cmsis_gcc.h **** #define __SSAT(ARG1, ARG2) \
 562:Drivers/CMSIS/Include/cmsis_gcc.h **** __extension__ \
 563:Drivers/CMSIS/Include/cmsis_gcc.h **** ({                          \
 564:Drivers/CMSIS/Include/cmsis_gcc.h ****   int32_t __RES, __ARG1 = (ARG1); \
 565:Drivers/CMSIS/Include/cmsis_gcc.h ****   __ASM volatile ("ssat %0, %1, %2" : "=r" (__RES) :  "I" (ARG2), "r" (__ARG1) : "cc" ); \
 566:Drivers/CMSIS/Include/cmsis_gcc.h ****   __RES; \
 567:Drivers/CMSIS/Include/cmsis_gcc.h ****  })
 568:Drivers/CMSIS/Include/cmsis_gcc.h **** 
 569:Drivers/CMSIS/Include/cmsis_gcc.h **** 
 570:Drivers/CMSIS/Include/cmsis_gcc.h **** /**
 571:Drivers/CMSIS/Include/cmsis_gcc.h ****   \brief   Unsigned Saturate
 572:Drivers/CMSIS/Include/cmsis_gcc.h ****   \details Saturates an unsigned value.
 573:Drivers/CMSIS/Include/cmsis_gcc.h ****   \param [in]  ARG1  Value to be saturated
 574:Drivers/CMSIS/Include/cmsis_gcc.h ****   \param [in]  ARG2  Bit position to saturate to (0..31)
 575:Drivers/CMSIS/Include/cmsis_gcc.h ****   \return             Saturated value
 576:Drivers/CMSIS/Include/cmsis_gcc.h ****  */
 577:Drivers/CMSIS/Include/cmsis_gcc.h **** #define __USAT(ARG1, ARG2) \
 578:Drivers/CMSIS/Include/cmsis_gcc.h **** __extension__ \
 579:Drivers/CMSIS/Include/cmsis_gcc.h **** ({                          \
 580:Drivers/CMSIS/Include/cmsis_gcc.h ****   uint32_t __RES, __ARG1 = (ARG1); \
 581:Drivers/CMSIS/Include/cmsis_gcc.h ****   __ASM volatile ("usat %0, %1, %2" : "=r" (__RES) :  "I" (ARG2), "r" (__ARG1) : "cc" ); \
 582:Drivers/CMSIS/Include/cmsis_gcc.h ****   __RES; \
 583:Drivers/CMSIS/Include/cmsis_gcc.h ****  })
 584:Drivers/CMSIS/Include/cmsis_gcc.h **** 
 585:Drivers/CMSIS/Include/cmsis_gcc.h **** 
 586:Drivers/CMSIS/Include/cmsis_gcc.h **** /**
 587:Drivers/CMSIS/Include/cmsis_gcc.h ****   \brief   Rotate Right with Extend (32 bit)
 588:Drivers/CMSIS/Include/cmsis_gcc.h ****   \details Moves each bit of a bitstring right by one bit.
 589:Drivers/CMSIS/Include/cmsis_gcc.h ****            The carry input is shifted in at the left end of the bitstring.
 590:Drivers/CMSIS/Include/cmsis_gcc.h ****   \param [in]    value  Value to rotate
 591:Drivers/CMSIS/Include/cmsis_gcc.h ****   \return               Rotated value
 592:Drivers/CMSIS/Include/cmsis_gcc.h ****  */
 593:Drivers/CMSIS/Include/cmsis_gcc.h **** __STATIC_FORCEINLINE uint32_t __RRX(uint32_t value)
 594:Drivers/CMSIS/Include/cmsis_gcc.h **** {
 595:Drivers/CMSIS/Include/cmsis_gcc.h ****   uint32_t result;
 596:Drivers/CMSIS/Include/cmsis_gcc.h **** 
 597:Drivers/CMSIS/Include/cmsis_gcc.h ****   __ASM volatile ("rrx %0, %1" : __CMSIS_GCC_OUT_REG (result) : __CMSIS_GCC_USE_REG (value) );
 598:Drivers/CMSIS/Include/cmsis_gcc.h ****   return(result);
 599:Drivers/CMSIS/Include/cmsis_gcc.h **** }
 600:Drivers/CMSIS/Include/cmsis_gcc.h **** 
 601:Drivers/CMSIS/Include/cmsis_gcc.h **** 
 602:Drivers/CMSIS/Include/cmsis_gcc.h **** /**
 603:Drivers/CMSIS/Include/cmsis_gcc.h ****   \brief   LDRT Unprivileged (8 bit)
 604:Drivers/CMSIS/Include/cmsis_gcc.h ****   \details Executes a Unprivileged LDRT instruction for 8 bit value.
 605:Drivers/CMSIS/Include/cmsis_gcc.h ****   \param [in]    ptr  Pointer to data
 606:Drivers/CMSIS/Include/cmsis_gcc.h ****   \return             value of type uint8_t at (*ptr)
 607:Drivers/CMSIS/Include/cmsis_gcc.h ****  */
 608:Drivers/CMSIS/Include/cmsis_gcc.h **** __STATIC_FORCEINLINE uint8_t __LDRBT(volatile uint8_t *ptr)
ARM GAS  C:\Users\User\AppData\Local\Temp\cciKCUxe.s 			page 34


 609:Drivers/CMSIS/Include/cmsis_gcc.h **** {
 610:Drivers/CMSIS/Include/cmsis_gcc.h ****     uint32_t result;
 611:Drivers/CMSIS/Include/cmsis_gcc.h **** 
 612:Drivers/CMSIS/Include/cmsis_gcc.h **** #if (__GNUC__ > 4) || (__GNUC__ == 4 && __GNUC_MINOR__ >= 8)
 613:Drivers/CMSIS/Include/cmsis_gcc.h ****    __ASM volatile ("ldrbt %0, %1" : "=r" (result) : "Q" (*ptr) );
 614:Drivers/CMSIS/Include/cmsis_gcc.h **** #else
 615:Drivers/CMSIS/Include/cmsis_gcc.h ****     /* Prior to GCC 4.8, "Q" will be expanded to [rx, #0] which is not
 616:Drivers/CMSIS/Include/cmsis_gcc.h ****        accepted by assembler. So has to use following less efficient pattern.
 617:Drivers/CMSIS/Include/cmsis_gcc.h ****     */
 618:Drivers/CMSIS/Include/cmsis_gcc.h ****    __ASM volatile ("ldrbt %0, [%1]" : "=r" (result) : "r" (ptr) : "memory" );
 619:Drivers/CMSIS/Include/cmsis_gcc.h **** #endif
 620:Drivers/CMSIS/Include/cmsis_gcc.h ****    return ((uint8_t) result);    /* Add explicit type cast here */
 621:Drivers/CMSIS/Include/cmsis_gcc.h **** }
 622:Drivers/CMSIS/Include/cmsis_gcc.h **** 
 623:Drivers/CMSIS/Include/cmsis_gcc.h **** 
 624:Drivers/CMSIS/Include/cmsis_gcc.h **** /**
 625:Drivers/CMSIS/Include/cmsis_gcc.h ****   \brief   LDRT Unprivileged (16 bit)
 626:Drivers/CMSIS/Include/cmsis_gcc.h ****   \details Executes a Unprivileged LDRT instruction for 16 bit values.
 627:Drivers/CMSIS/Include/cmsis_gcc.h ****   \param [in]    ptr  Pointer to data
 628:Drivers/CMSIS/Include/cmsis_gcc.h ****   \return        value of type uint16_t at (*ptr)
 629:Drivers/CMSIS/Include/cmsis_gcc.h ****  */
 630:Drivers/CMSIS/Include/cmsis_gcc.h **** __STATIC_FORCEINLINE uint16_t __LDRHT(volatile uint16_t *ptr)
 631:Drivers/CMSIS/Include/cmsis_gcc.h **** {
 632:Drivers/CMSIS/Include/cmsis_gcc.h ****     uint32_t result;
 633:Drivers/CMSIS/Include/cmsis_gcc.h **** 
 634:Drivers/CMSIS/Include/cmsis_gcc.h **** #if (__GNUC__ > 4) || (__GNUC__ == 4 && __GNUC_MINOR__ >= 8)
 635:Drivers/CMSIS/Include/cmsis_gcc.h ****    __ASM volatile ("ldrht %0, %1" : "=r" (result) : "Q" (*ptr) );
 636:Drivers/CMSIS/Include/cmsis_gcc.h **** #else
 637:Drivers/CMSIS/Include/cmsis_gcc.h ****     /* Prior to GCC 4.8, "Q" will be expanded to [rx, #0] which is not
 638:Drivers/CMSIS/Include/cmsis_gcc.h ****        accepted by assembler. So has to use following less efficient pattern.
 639:Drivers/CMSIS/Include/cmsis_gcc.h ****     */
 640:Drivers/CMSIS/Include/cmsis_gcc.h ****    __ASM volatile ("ldrht %0, [%1]" : "=r" (result) : "r" (ptr) : "memory" );
 641:Drivers/CMSIS/Include/cmsis_gcc.h **** #endif
 642:Drivers/CMSIS/Include/cmsis_gcc.h ****    return ((uint16_t) result);    /* Add explicit type cast here */
 643:Drivers/CMSIS/Include/cmsis_gcc.h **** }
 644:Drivers/CMSIS/Include/cmsis_gcc.h **** 
 645:Drivers/CMSIS/Include/cmsis_gcc.h **** 
 646:Drivers/CMSIS/Include/cmsis_gcc.h **** /**
 647:Drivers/CMSIS/Include/cmsis_gcc.h ****   \brief   LDRT Unprivileged (32 bit)
 648:Drivers/CMSIS/Include/cmsis_gcc.h ****   \details Executes a Unprivileged LDRT instruction for 32 bit values.
 649:Drivers/CMSIS/Include/cmsis_gcc.h ****   \param [in]    ptr  Pointer to data
 650:Drivers/CMSIS/Include/cmsis_gcc.h ****   \return        value of type uint32_t at (*ptr)
 651:Drivers/CMSIS/Include/cmsis_gcc.h ****  */
 652:Drivers/CMSIS/Include/cmsis_gcc.h **** __STATIC_FORCEINLINE uint32_t __LDRT(volatile uint32_t *ptr)
 653:Drivers/CMSIS/Include/cmsis_gcc.h **** {
 654:Drivers/CMSIS/Include/cmsis_gcc.h ****     uint32_t result;
 655:Drivers/CMSIS/Include/cmsis_gcc.h **** 
 656:Drivers/CMSIS/Include/cmsis_gcc.h ****    __ASM volatile ("ldrt %0, %1" : "=r" (result) : "Q" (*ptr) );
 657:Drivers/CMSIS/Include/cmsis_gcc.h ****    return(result);
 658:Drivers/CMSIS/Include/cmsis_gcc.h **** }
 659:Drivers/CMSIS/Include/cmsis_gcc.h **** 
 660:Drivers/CMSIS/Include/cmsis_gcc.h **** 
 661:Drivers/CMSIS/Include/cmsis_gcc.h **** /**
 662:Drivers/CMSIS/Include/cmsis_gcc.h ****   \brief   STRT Unprivileged (8 bit)
 663:Drivers/CMSIS/Include/cmsis_gcc.h ****   \details Executes a Unprivileged STRT instruction for 8 bit values.
 664:Drivers/CMSIS/Include/cmsis_gcc.h ****   \param [in]  value  Value to store
 665:Drivers/CMSIS/Include/cmsis_gcc.h ****   \param [in]    ptr  Pointer to location
ARM GAS  C:\Users\User\AppData\Local\Temp\cciKCUxe.s 			page 35


 666:Drivers/CMSIS/Include/cmsis_gcc.h ****  */
 667:Drivers/CMSIS/Include/cmsis_gcc.h **** __STATIC_FORCEINLINE void __STRBT(uint8_t value, volatile uint8_t *ptr)
 668:Drivers/CMSIS/Include/cmsis_gcc.h **** {
 669:Drivers/CMSIS/Include/cmsis_gcc.h ****    __ASM volatile ("strbt %1, %0" : "=Q" (*ptr) : "r" ((uint32_t)value) );
 670:Drivers/CMSIS/Include/cmsis_gcc.h **** }
 671:Drivers/CMSIS/Include/cmsis_gcc.h **** 
 672:Drivers/CMSIS/Include/cmsis_gcc.h **** 
 673:Drivers/CMSIS/Include/cmsis_gcc.h **** /**
 674:Drivers/CMSIS/Include/cmsis_gcc.h ****   \brief   STRT Unprivileged (16 bit)
 675:Drivers/CMSIS/Include/cmsis_gcc.h ****   \details Executes a Unprivileged STRT instruction for 16 bit values.
 676:Drivers/CMSIS/Include/cmsis_gcc.h ****   \param [in]  value  Value to store
 677:Drivers/CMSIS/Include/cmsis_gcc.h ****   \param [in]    ptr  Pointer to location
 678:Drivers/CMSIS/Include/cmsis_gcc.h ****  */
 679:Drivers/CMSIS/Include/cmsis_gcc.h **** __STATIC_FORCEINLINE void __STRHT(uint16_t value, volatile uint16_t *ptr)
 680:Drivers/CMSIS/Include/cmsis_gcc.h **** {
 681:Drivers/CMSIS/Include/cmsis_gcc.h ****    __ASM volatile ("strht %1, %0" : "=Q" (*ptr) : "r" ((uint32_t)value) );
 682:Drivers/CMSIS/Include/cmsis_gcc.h **** }
 683:Drivers/CMSIS/Include/cmsis_gcc.h **** 
 684:Drivers/CMSIS/Include/cmsis_gcc.h **** 
 685:Drivers/CMSIS/Include/cmsis_gcc.h **** /**
 686:Drivers/CMSIS/Include/cmsis_gcc.h ****   \brief   STRT Unprivileged (32 bit)
 687:Drivers/CMSIS/Include/cmsis_gcc.h ****   \details Executes a Unprivileged STRT instruction for 32 bit values.
 688:Drivers/CMSIS/Include/cmsis_gcc.h ****   \param [in]  value  Value to store
 689:Drivers/CMSIS/Include/cmsis_gcc.h ****   \param [in]    ptr  Pointer to location
 690:Drivers/CMSIS/Include/cmsis_gcc.h ****  */
 691:Drivers/CMSIS/Include/cmsis_gcc.h **** __STATIC_FORCEINLINE void __STRT(uint32_t value, volatile uint32_t *ptr)
 692:Drivers/CMSIS/Include/cmsis_gcc.h **** {
 693:Drivers/CMSIS/Include/cmsis_gcc.h ****    __ASM volatile ("strt %1, %0" : "=Q" (*ptr) : "r" (value) );
 694:Drivers/CMSIS/Include/cmsis_gcc.h **** }
 695:Drivers/CMSIS/Include/cmsis_gcc.h **** 
 696:Drivers/CMSIS/Include/cmsis_gcc.h **** #else  /* ((defined (__ARM_ARCH_7M__      ) && (__ARM_ARCH_7M__      == 1)) || \
 697:Drivers/CMSIS/Include/cmsis_gcc.h ****            (defined (__ARM_ARCH_7EM__     ) && (__ARM_ARCH_7EM__     == 1)) || \
 698:Drivers/CMSIS/Include/cmsis_gcc.h ****            (defined (__ARM_ARCH_8M_MAIN__ ) && (__ARM_ARCH_8M_MAIN__ == 1))    ) */
 699:Drivers/CMSIS/Include/cmsis_gcc.h **** 
 700:Drivers/CMSIS/Include/cmsis_gcc.h **** /**
 701:Drivers/CMSIS/Include/cmsis_gcc.h ****   \brief   Signed Saturate
 702:Drivers/CMSIS/Include/cmsis_gcc.h ****   \details Saturates a signed value.
 703:Drivers/CMSIS/Include/cmsis_gcc.h ****   \param [in]  value  Value to be saturated
 704:Drivers/CMSIS/Include/cmsis_gcc.h ****   \param [in]    sat  Bit position to saturate to (1..32)
 705:Drivers/CMSIS/Include/cmsis_gcc.h ****   \return             Saturated value
 706:Drivers/CMSIS/Include/cmsis_gcc.h ****  */
 707:Drivers/CMSIS/Include/cmsis_gcc.h **** __STATIC_FORCEINLINE int32_t __SSAT(int32_t val, uint32_t sat)
 708:Drivers/CMSIS/Include/cmsis_gcc.h **** {
 709:Drivers/CMSIS/Include/cmsis_gcc.h ****   if ((sat >= 1U) && (sat <= 32U))
 710:Drivers/CMSIS/Include/cmsis_gcc.h ****   {
 711:Drivers/CMSIS/Include/cmsis_gcc.h ****     const int32_t max = (int32_t)((1U << (sat - 1U)) - 1U);
 712:Drivers/CMSIS/Include/cmsis_gcc.h ****     const int32_t min = -1 - max ;
 713:Drivers/CMSIS/Include/cmsis_gcc.h ****     if (val > max)
 714:Drivers/CMSIS/Include/cmsis_gcc.h ****     {
 715:Drivers/CMSIS/Include/cmsis_gcc.h ****       return max;
 716:Drivers/CMSIS/Include/cmsis_gcc.h ****     }
 717:Drivers/CMSIS/Include/cmsis_gcc.h ****     else if (val < min)
 718:Drivers/CMSIS/Include/cmsis_gcc.h ****     {
 719:Drivers/CMSIS/Include/cmsis_gcc.h ****       return min;
 720:Drivers/CMSIS/Include/cmsis_gcc.h ****     }
 721:Drivers/CMSIS/Include/cmsis_gcc.h ****   }
 722:Drivers/CMSIS/Include/cmsis_gcc.h ****   return val;
ARM GAS  C:\Users\User\AppData\Local\Temp\cciKCUxe.s 			page 36


 723:Drivers/CMSIS/Include/cmsis_gcc.h **** }
 724:Drivers/CMSIS/Include/cmsis_gcc.h **** 
 725:Drivers/CMSIS/Include/cmsis_gcc.h **** /**
 726:Drivers/CMSIS/Include/cmsis_gcc.h ****   \brief   Unsigned Saturate
 727:Drivers/CMSIS/Include/cmsis_gcc.h ****   \details Saturates an unsigned value.
 728:Drivers/CMSIS/Include/cmsis_gcc.h ****   \param [in]  value  Value to be saturated
 729:Drivers/CMSIS/Include/cmsis_gcc.h ****   \param [in]    sat  Bit position to saturate to (0..31)
 730:Drivers/CMSIS/Include/cmsis_gcc.h ****   \return             Saturated value
 731:Drivers/CMSIS/Include/cmsis_gcc.h ****  */
 732:Drivers/CMSIS/Include/cmsis_gcc.h **** __STATIC_FORCEINLINE uint32_t __USAT(int32_t val, uint32_t sat)
 733:Drivers/CMSIS/Include/cmsis_gcc.h **** {
 734:Drivers/CMSIS/Include/cmsis_gcc.h ****   if (sat <= 31U)
 735:Drivers/CMSIS/Include/cmsis_gcc.h ****   {
 736:Drivers/CMSIS/Include/cmsis_gcc.h ****     const uint32_t max = ((1U << sat) - 1U);
 737:Drivers/CMSIS/Include/cmsis_gcc.h ****     if (val > (int32_t)max)
 738:Drivers/CMSIS/Include/cmsis_gcc.h ****     {
 739:Drivers/CMSIS/Include/cmsis_gcc.h ****       return max;
 740:Drivers/CMSIS/Include/cmsis_gcc.h ****     }
 741:Drivers/CMSIS/Include/cmsis_gcc.h ****     else if (val < 0)
 742:Drivers/CMSIS/Include/cmsis_gcc.h ****     {
 743:Drivers/CMSIS/Include/cmsis_gcc.h ****       return 0U;
 744:Drivers/CMSIS/Include/cmsis_gcc.h ****     }
 745:Drivers/CMSIS/Include/cmsis_gcc.h ****   }
 746:Drivers/CMSIS/Include/cmsis_gcc.h ****   return (uint32_t)val;
 747:Drivers/CMSIS/Include/cmsis_gcc.h **** }
 748:Drivers/CMSIS/Include/cmsis_gcc.h **** 
 749:Drivers/CMSIS/Include/cmsis_gcc.h **** #endif /* ((defined (__ARM_ARCH_7M__      ) && (__ARM_ARCH_7M__      == 1)) || \
 750:Drivers/CMSIS/Include/cmsis_gcc.h ****            (defined (__ARM_ARCH_7EM__     ) && (__ARM_ARCH_7EM__     == 1)) || \
 751:Drivers/CMSIS/Include/cmsis_gcc.h ****            (defined (__ARM_ARCH_8M_MAIN__ ) && (__ARM_ARCH_8M_MAIN__ == 1))    ) */
 752:Drivers/CMSIS/Include/cmsis_gcc.h **** 
 753:Drivers/CMSIS/Include/cmsis_gcc.h **** 
 754:Drivers/CMSIS/Include/cmsis_gcc.h **** #if ((defined (__ARM_ARCH_8M_MAIN__ ) && (__ARM_ARCH_8M_MAIN__ == 1)) || \
 755:Drivers/CMSIS/Include/cmsis_gcc.h ****      (defined (__ARM_ARCH_8M_BASE__ ) && (__ARM_ARCH_8M_BASE__ == 1))    )
 756:Drivers/CMSIS/Include/cmsis_gcc.h **** /**
 757:Drivers/CMSIS/Include/cmsis_gcc.h ****   \brief   Load-Acquire (8 bit)
 758:Drivers/CMSIS/Include/cmsis_gcc.h ****   \details Executes a LDAB instruction for 8 bit value.
 759:Drivers/CMSIS/Include/cmsis_gcc.h ****   \param [in]    ptr  Pointer to data
 760:Drivers/CMSIS/Include/cmsis_gcc.h ****   \return             value of type uint8_t at (*ptr)
 761:Drivers/CMSIS/Include/cmsis_gcc.h ****  */
 762:Drivers/CMSIS/Include/cmsis_gcc.h **** __STATIC_FORCEINLINE uint8_t __LDAB(volatile uint8_t *ptr)
 763:Drivers/CMSIS/Include/cmsis_gcc.h **** {
 764:Drivers/CMSIS/Include/cmsis_gcc.h ****     uint32_t result;
 765:Drivers/CMSIS/Include/cmsis_gcc.h **** 
 766:Drivers/CMSIS/Include/cmsis_gcc.h ****    __ASM volatile ("ldab %0, %1" : "=r" (result) : "Q" (*ptr) : "memory" );
 767:Drivers/CMSIS/Include/cmsis_gcc.h ****    return ((uint8_t) result);
 768:Drivers/CMSIS/Include/cmsis_gcc.h **** }
 769:Drivers/CMSIS/Include/cmsis_gcc.h **** 
 770:Drivers/CMSIS/Include/cmsis_gcc.h **** 
 771:Drivers/CMSIS/Include/cmsis_gcc.h **** /**
 772:Drivers/CMSIS/Include/cmsis_gcc.h ****   \brief   Load-Acquire (16 bit)
 773:Drivers/CMSIS/Include/cmsis_gcc.h ****   \details Executes a LDAH instruction for 16 bit values.
 774:Drivers/CMSIS/Include/cmsis_gcc.h ****   \param [in]    ptr  Pointer to data
 775:Drivers/CMSIS/Include/cmsis_gcc.h ****   \return        value of type uint16_t at (*ptr)
 776:Drivers/CMSIS/Include/cmsis_gcc.h ****  */
 777:Drivers/CMSIS/Include/cmsis_gcc.h **** __STATIC_FORCEINLINE uint16_t __LDAH(volatile uint16_t *ptr)
 778:Drivers/CMSIS/Include/cmsis_gcc.h **** {
 779:Drivers/CMSIS/Include/cmsis_gcc.h ****     uint32_t result;
ARM GAS  C:\Users\User\AppData\Local\Temp\cciKCUxe.s 			page 37


 780:Drivers/CMSIS/Include/cmsis_gcc.h **** 
 781:Drivers/CMSIS/Include/cmsis_gcc.h ****    __ASM volatile ("ldah %0, %1" : "=r" (result) : "Q" (*ptr) : "memory" );
 782:Drivers/CMSIS/Include/cmsis_gcc.h ****    return ((uint16_t) result);
 783:Drivers/CMSIS/Include/cmsis_gcc.h **** }
 784:Drivers/CMSIS/Include/cmsis_gcc.h **** 
 785:Drivers/CMSIS/Include/cmsis_gcc.h **** 
 786:Drivers/CMSIS/Include/cmsis_gcc.h **** /**
 787:Drivers/CMSIS/Include/cmsis_gcc.h ****   \brief   Load-Acquire (32 bit)
 788:Drivers/CMSIS/Include/cmsis_gcc.h ****   \details Executes a LDA instruction for 32 bit values.
 789:Drivers/CMSIS/Include/cmsis_gcc.h ****   \param [in]    ptr  Pointer to data
 790:Drivers/CMSIS/Include/cmsis_gcc.h ****   \return        value of type uint32_t at (*ptr)
 791:Drivers/CMSIS/Include/cmsis_gcc.h ****  */
 792:Drivers/CMSIS/Include/cmsis_gcc.h **** __STATIC_FORCEINLINE uint32_t __LDA(volatile uint32_t *ptr)
 793:Drivers/CMSIS/Include/cmsis_gcc.h **** {
 794:Drivers/CMSIS/Include/cmsis_gcc.h ****     uint32_t result;
 795:Drivers/CMSIS/Include/cmsis_gcc.h **** 
 796:Drivers/CMSIS/Include/cmsis_gcc.h ****    __ASM volatile ("lda %0, %1" : "=r" (result) : "Q" (*ptr) : "memory" );
 797:Drivers/CMSIS/Include/cmsis_gcc.h ****    return(result);
 798:Drivers/CMSIS/Include/cmsis_gcc.h **** }
 799:Drivers/CMSIS/Include/cmsis_gcc.h **** 
 800:Drivers/CMSIS/Include/cmsis_gcc.h **** 
 801:Drivers/CMSIS/Include/cmsis_gcc.h **** /**
 802:Drivers/CMSIS/Include/cmsis_gcc.h ****   \brief   Store-Release (8 bit)
 803:Drivers/CMSIS/Include/cmsis_gcc.h ****   \details Executes a STLB instruction for 8 bit values.
 804:Drivers/CMSIS/Include/cmsis_gcc.h ****   \param [in]  value  Value to store
 805:Drivers/CMSIS/Include/cmsis_gcc.h ****   \param [in]    ptr  Pointer to location
 806:Drivers/CMSIS/Include/cmsis_gcc.h ****  */
 807:Drivers/CMSIS/Include/cmsis_gcc.h **** __STATIC_FORCEINLINE void __STLB(uint8_t value, volatile uint8_t *ptr)
 808:Drivers/CMSIS/Include/cmsis_gcc.h **** {
 809:Drivers/CMSIS/Include/cmsis_gcc.h ****    __ASM volatile ("stlb %1, %0" : "=Q" (*ptr) : "r" ((uint32_t)value) : "memory" );
 810:Drivers/CMSIS/Include/cmsis_gcc.h **** }
 811:Drivers/CMSIS/Include/cmsis_gcc.h **** 
 812:Drivers/CMSIS/Include/cmsis_gcc.h **** 
 813:Drivers/CMSIS/Include/cmsis_gcc.h **** /**
 814:Drivers/CMSIS/Include/cmsis_gcc.h ****   \brief   Store-Release (16 bit)
 815:Drivers/CMSIS/Include/cmsis_gcc.h ****   \details Executes a STLH instruction for 16 bit values.
 816:Drivers/CMSIS/Include/cmsis_gcc.h ****   \param [in]  value  Value to store
 817:Drivers/CMSIS/Include/cmsis_gcc.h ****   \param [in]    ptr  Pointer to location
 818:Drivers/CMSIS/Include/cmsis_gcc.h ****  */
 819:Drivers/CMSIS/Include/cmsis_gcc.h **** __STATIC_FORCEINLINE void __STLH(uint16_t value, volatile uint16_t *ptr)
 820:Drivers/CMSIS/Include/cmsis_gcc.h **** {
 821:Drivers/CMSIS/Include/cmsis_gcc.h ****    __ASM volatile ("stlh %1, %0" : "=Q" (*ptr) : "r" ((uint32_t)value) : "memory" );
 822:Drivers/CMSIS/Include/cmsis_gcc.h **** }
 823:Drivers/CMSIS/Include/cmsis_gcc.h **** 
 824:Drivers/CMSIS/Include/cmsis_gcc.h **** 
 825:Drivers/CMSIS/Include/cmsis_gcc.h **** /**
 826:Drivers/CMSIS/Include/cmsis_gcc.h ****   \brief   Store-Release (32 bit)
 827:Drivers/CMSIS/Include/cmsis_gcc.h ****   \details Executes a STL instruction for 32 bit values.
 828:Drivers/CMSIS/Include/cmsis_gcc.h ****   \param [in]  value  Value to store
 829:Drivers/CMSIS/Include/cmsis_gcc.h ****   \param [in]    ptr  Pointer to location
 830:Drivers/CMSIS/Include/cmsis_gcc.h ****  */
 831:Drivers/CMSIS/Include/cmsis_gcc.h **** __STATIC_FORCEINLINE void __STL(uint32_t value, volatile uint32_t *ptr)
 832:Drivers/CMSIS/Include/cmsis_gcc.h **** {
 833:Drivers/CMSIS/Include/cmsis_gcc.h ****    __ASM volatile ("stl %1, %0" : "=Q" (*ptr) : "r" ((uint32_t)value) : "memory" );
 834:Drivers/CMSIS/Include/cmsis_gcc.h **** }
 835:Drivers/CMSIS/Include/cmsis_gcc.h **** 
 836:Drivers/CMSIS/Include/cmsis_gcc.h **** 
ARM GAS  C:\Users\User\AppData\Local\Temp\cciKCUxe.s 			page 38


 837:Drivers/CMSIS/Include/cmsis_gcc.h **** /**
 838:Drivers/CMSIS/Include/cmsis_gcc.h ****   \brief   Load-Acquire Exclusive (8 bit)
 839:Drivers/CMSIS/Include/cmsis_gcc.h ****   \details Executes a LDAB exclusive instruction for 8 bit value.
 840:Drivers/CMSIS/Include/cmsis_gcc.h ****   \param [in]    ptr  Pointer to data
 841:Drivers/CMSIS/Include/cmsis_gcc.h ****   \return             value of type uint8_t at (*ptr)
 842:Drivers/CMSIS/Include/cmsis_gcc.h ****  */
 843:Drivers/CMSIS/Include/cmsis_gcc.h **** __STATIC_FORCEINLINE uint8_t __LDAEXB(volatile uint8_t *ptr)
 844:Drivers/CMSIS/Include/cmsis_gcc.h **** {
 845:Drivers/CMSIS/Include/cmsis_gcc.h ****     uint32_t result;
 846:Drivers/CMSIS/Include/cmsis_gcc.h **** 
 847:Drivers/CMSIS/Include/cmsis_gcc.h ****    __ASM volatile ("ldaexb %0, %1" : "=r" (result) : "Q" (*ptr) : "memory" );
 848:Drivers/CMSIS/Include/cmsis_gcc.h ****    return ((uint8_t) result);
 849:Drivers/CMSIS/Include/cmsis_gcc.h **** }
 850:Drivers/CMSIS/Include/cmsis_gcc.h **** 
 851:Drivers/CMSIS/Include/cmsis_gcc.h **** 
 852:Drivers/CMSIS/Include/cmsis_gcc.h **** /**
 853:Drivers/CMSIS/Include/cmsis_gcc.h ****   \brief   Load-Acquire Exclusive (16 bit)
 854:Drivers/CMSIS/Include/cmsis_gcc.h ****   \details Executes a LDAH exclusive instruction for 16 bit values.
 855:Drivers/CMSIS/Include/cmsis_gcc.h ****   \param [in]    ptr  Pointer to data
 856:Drivers/CMSIS/Include/cmsis_gcc.h ****   \return        value of type uint16_t at (*ptr)
 857:Drivers/CMSIS/Include/cmsis_gcc.h ****  */
 858:Drivers/CMSIS/Include/cmsis_gcc.h **** __STATIC_FORCEINLINE uint16_t __LDAEXH(volatile uint16_t *ptr)
 859:Drivers/CMSIS/Include/cmsis_gcc.h **** {
 860:Drivers/CMSIS/Include/cmsis_gcc.h ****     uint32_t result;
 861:Drivers/CMSIS/Include/cmsis_gcc.h **** 
 862:Drivers/CMSIS/Include/cmsis_gcc.h ****    __ASM volatile ("ldaexh %0, %1" : "=r" (result) : "Q" (*ptr) : "memory" );
 863:Drivers/CMSIS/Include/cmsis_gcc.h ****    return ((uint16_t) result);
 864:Drivers/CMSIS/Include/cmsis_gcc.h **** }
 865:Drivers/CMSIS/Include/cmsis_gcc.h **** 
 866:Drivers/CMSIS/Include/cmsis_gcc.h **** 
 867:Drivers/CMSIS/Include/cmsis_gcc.h **** /**
 868:Drivers/CMSIS/Include/cmsis_gcc.h ****   \brief   Load-Acquire Exclusive (32 bit)
 869:Drivers/CMSIS/Include/cmsis_gcc.h ****   \details Executes a LDA exclusive instruction for 32 bit values.
 870:Drivers/CMSIS/Include/cmsis_gcc.h ****   \param [in]    ptr  Pointer to data
 871:Drivers/CMSIS/Include/cmsis_gcc.h ****   \return        value of type uint32_t at (*ptr)
 872:Drivers/CMSIS/Include/cmsis_gcc.h ****  */
 873:Drivers/CMSIS/Include/cmsis_gcc.h **** __STATIC_FORCEINLINE uint32_t __LDAEX(volatile uint32_t *ptr)
 874:Drivers/CMSIS/Include/cmsis_gcc.h **** {
 875:Drivers/CMSIS/Include/cmsis_gcc.h ****     uint32_t result;
 876:Drivers/CMSIS/Include/cmsis_gcc.h **** 
 877:Drivers/CMSIS/Include/cmsis_gcc.h ****    __ASM volatile ("ldaex %0, %1" : "=r" (result) : "Q" (*ptr) : "memory" );
 878:Drivers/CMSIS/Include/cmsis_gcc.h ****    return(result);
 879:Drivers/CMSIS/Include/cmsis_gcc.h **** }
 880:Drivers/CMSIS/Include/cmsis_gcc.h **** 
 881:Drivers/CMSIS/Include/cmsis_gcc.h **** 
 882:Drivers/CMSIS/Include/cmsis_gcc.h **** /**
 883:Drivers/CMSIS/Include/cmsis_gcc.h ****   \brief   Store-Release Exclusive (8 bit)
 884:Drivers/CMSIS/Include/cmsis_gcc.h ****   \details Executes a STLB exclusive instruction for 8 bit values.
 885:Drivers/CMSIS/Include/cmsis_gcc.h ****   \param [in]  value  Value to store
 886:Drivers/CMSIS/Include/cmsis_gcc.h ****   \param [in]    ptr  Pointer to location
 887:Drivers/CMSIS/Include/cmsis_gcc.h ****   \return          0  Function succeeded
 888:Drivers/CMSIS/Include/cmsis_gcc.h ****   \return          1  Function failed
 889:Drivers/CMSIS/Include/cmsis_gcc.h ****  */
 890:Drivers/CMSIS/Include/cmsis_gcc.h **** __STATIC_FORCEINLINE uint32_t __STLEXB(uint8_t value, volatile uint8_t *ptr)
 891:Drivers/CMSIS/Include/cmsis_gcc.h **** {
 892:Drivers/CMSIS/Include/cmsis_gcc.h ****    uint32_t result;
 893:Drivers/CMSIS/Include/cmsis_gcc.h **** 
ARM GAS  C:\Users\User\AppData\Local\Temp\cciKCUxe.s 			page 39


 894:Drivers/CMSIS/Include/cmsis_gcc.h ****    __ASM volatile ("stlexb %0, %2, %1" : "=&r" (result), "=Q" (*ptr) : "r" ((uint32_t)value) : "mem
 895:Drivers/CMSIS/Include/cmsis_gcc.h ****    return(result);
 896:Drivers/CMSIS/Include/cmsis_gcc.h **** }
 897:Drivers/CMSIS/Include/cmsis_gcc.h **** 
 898:Drivers/CMSIS/Include/cmsis_gcc.h **** 
 899:Drivers/CMSIS/Include/cmsis_gcc.h **** /**
 900:Drivers/CMSIS/Include/cmsis_gcc.h ****   \brief   Store-Release Exclusive (16 bit)
 901:Drivers/CMSIS/Include/cmsis_gcc.h ****   \details Executes a STLH exclusive instruction for 16 bit values.
 902:Drivers/CMSIS/Include/cmsis_gcc.h ****   \param [in]  value  Value to store
 903:Drivers/CMSIS/Include/cmsis_gcc.h ****   \param [in]    ptr  Pointer to location
 904:Drivers/CMSIS/Include/cmsis_gcc.h ****   \return          0  Function succeeded
 905:Drivers/CMSIS/Include/cmsis_gcc.h ****   \return          1  Function failed
 906:Drivers/CMSIS/Include/cmsis_gcc.h ****  */
 907:Drivers/CMSIS/Include/cmsis_gcc.h **** __STATIC_FORCEINLINE uint32_t __STLEXH(uint16_t value, volatile uint16_t *ptr)
 908:Drivers/CMSIS/Include/cmsis_gcc.h **** {
 909:Drivers/CMSIS/Include/cmsis_gcc.h ****    uint32_t result;
 910:Drivers/CMSIS/Include/cmsis_gcc.h **** 
 911:Drivers/CMSIS/Include/cmsis_gcc.h ****    __ASM volatile ("stlexh %0, %2, %1" : "=&r" (result), "=Q" (*ptr) : "r" ((uint32_t)value) : "mem
 912:Drivers/CMSIS/Include/cmsis_gcc.h ****    return(result);
 913:Drivers/CMSIS/Include/cmsis_gcc.h **** }
 914:Drivers/CMSIS/Include/cmsis_gcc.h **** 
 915:Drivers/CMSIS/Include/cmsis_gcc.h **** 
 916:Drivers/CMSIS/Include/cmsis_gcc.h **** /**
 917:Drivers/CMSIS/Include/cmsis_gcc.h ****   \brief   Store-Release Exclusive (32 bit)
 918:Drivers/CMSIS/Include/cmsis_gcc.h ****   \details Executes a STL exclusive instruction for 32 bit values.
 919:Drivers/CMSIS/Include/cmsis_gcc.h ****   \param [in]  value  Value to store
 920:Drivers/CMSIS/Include/cmsis_gcc.h ****   \param [in]    ptr  Pointer to location
 921:Drivers/CMSIS/Include/cmsis_gcc.h ****   \return          0  Function succeeded
 922:Drivers/CMSIS/Include/cmsis_gcc.h ****   \return          1  Function failed
 923:Drivers/CMSIS/Include/cmsis_gcc.h ****  */
 924:Drivers/CMSIS/Include/cmsis_gcc.h **** __STATIC_FORCEINLINE uint32_t __STLEX(uint32_t value, volatile uint32_t *ptr)
 925:Drivers/CMSIS/Include/cmsis_gcc.h **** {
 926:Drivers/CMSIS/Include/cmsis_gcc.h ****    uint32_t result;
 927:Drivers/CMSIS/Include/cmsis_gcc.h **** 
 928:Drivers/CMSIS/Include/cmsis_gcc.h ****    __ASM volatile ("stlex %0, %2, %1" : "=&r" (result), "=Q" (*ptr) : "r" ((uint32_t)value) : "memo
 929:Drivers/CMSIS/Include/cmsis_gcc.h ****    return(result);
 930:Drivers/CMSIS/Include/cmsis_gcc.h **** }
 931:Drivers/CMSIS/Include/cmsis_gcc.h **** 
 932:Drivers/CMSIS/Include/cmsis_gcc.h **** #endif /* ((defined (__ARM_ARCH_8M_MAIN__ ) && (__ARM_ARCH_8M_MAIN__ == 1)) || \
 933:Drivers/CMSIS/Include/cmsis_gcc.h ****            (defined (__ARM_ARCH_8M_BASE__ ) && (__ARM_ARCH_8M_BASE__ == 1))    ) */
 934:Drivers/CMSIS/Include/cmsis_gcc.h **** 
 935:Drivers/CMSIS/Include/cmsis_gcc.h **** /*@}*/ /* end of group CMSIS_Core_InstructionInterface */
 936:Drivers/CMSIS/Include/cmsis_gcc.h **** 
 937:Drivers/CMSIS/Include/cmsis_gcc.h **** 
 938:Drivers/CMSIS/Include/cmsis_gcc.h **** /* ###########################  Core Function Access  ########################### */
 939:Drivers/CMSIS/Include/cmsis_gcc.h **** /** \ingroup  CMSIS_Core_FunctionInterface
 940:Drivers/CMSIS/Include/cmsis_gcc.h ****     \defgroup CMSIS_Core_RegAccFunctions CMSIS Core Register Access Functions
 941:Drivers/CMSIS/Include/cmsis_gcc.h ****   @{
 942:Drivers/CMSIS/Include/cmsis_gcc.h ****  */
 943:Drivers/CMSIS/Include/cmsis_gcc.h **** 
 944:Drivers/CMSIS/Include/cmsis_gcc.h **** /**
 945:Drivers/CMSIS/Include/cmsis_gcc.h ****   \brief   Enable IRQ Interrupts
 946:Drivers/CMSIS/Include/cmsis_gcc.h ****   \details Enables IRQ interrupts by clearing special-purpose register PRIMASK.
 947:Drivers/CMSIS/Include/cmsis_gcc.h ****            Can only be executed in Privileged modes.
 948:Drivers/CMSIS/Include/cmsis_gcc.h ****  */
 949:Drivers/CMSIS/Include/cmsis_gcc.h **** __STATIC_FORCEINLINE void __enable_irq(void)
 950:Drivers/CMSIS/Include/cmsis_gcc.h **** {
ARM GAS  C:\Users\User\AppData\Local\Temp\cciKCUxe.s 			page 40


 951:Drivers/CMSIS/Include/cmsis_gcc.h ****   __ASM volatile ("cpsie i" : : : "memory");
 952:Drivers/CMSIS/Include/cmsis_gcc.h **** }
 953:Drivers/CMSIS/Include/cmsis_gcc.h **** 
 954:Drivers/CMSIS/Include/cmsis_gcc.h **** 
 955:Drivers/CMSIS/Include/cmsis_gcc.h **** /**
 956:Drivers/CMSIS/Include/cmsis_gcc.h ****   \brief   Disable IRQ Interrupts
 957:Drivers/CMSIS/Include/cmsis_gcc.h ****   \details Disables IRQ interrupts by setting special-purpose register PRIMASK.
 958:Drivers/CMSIS/Include/cmsis_gcc.h ****            Can only be executed in Privileged modes.
 959:Drivers/CMSIS/Include/cmsis_gcc.h ****  */
 960:Drivers/CMSIS/Include/cmsis_gcc.h **** __STATIC_FORCEINLINE void __disable_irq(void)
 393              		.loc 2 960 27 view .LVU110
 394              	.LBB26:
 961:Drivers/CMSIS/Include/cmsis_gcc.h **** {
 962:Drivers/CMSIS/Include/cmsis_gcc.h ****   __ASM volatile ("cpsid i" : : : "memory");
 395              		.loc 2 962 3 view .LVU111
 396              		.syntax unified
 397              	@ 962 "Drivers/CMSIS/Include/cmsis_gcc.h" 1
 398 002e 72B6     		cpsid i
 399              	@ 0 "" 2
 400              		.thumb
 401              		.syntax unified
 402              	.L14:
 403              	.LBE26:
 404              	.LBE25:
 813:Core/Src/main.c ****   while (1)
 405              		.loc 1 813 3 view .LVU112
 814:Core/Src/main.c ****   {
 815:Core/Src/main.c ****   }
 406              		.loc 1 815 3 view .LVU113
 813:Core/Src/main.c ****   while (1)
 407              		.loc 1 813 9 view .LVU114
 408 0030 FEE7     		b	.L14
 409              	.L13:
 410              	.LBE24:
 383:Core/Src/main.c ****                               |RCC_CLOCKTYPE_PCLK1;
 411              		.loc 1 383 3 view .LVU115
 383:Core/Src/main.c ****                               |RCC_CLOCKTYPE_PCLK1;
 412              		.loc 1 383 31 is_stmt 0 view .LVU116
 413 0032 0723     		movs	r3, #7
 385:Core/Src/main.c ****   RCC_ClkInitStruct.AHBCLKDivider = RCC_SYSCLK_DIV1;
 414              		.loc 1 385 34 view .LVU117
 415 0034 CDE90030 		strd	r3, r0, [sp]
 386:Core/Src/main.c ****   RCC_ClkInitStruct.APB1CLKDivider = RCC_HCLK_DIV1;
 416              		.loc 1 386 3 is_stmt 1 view .LVU118
 387:Core/Src/main.c **** 
 417              		.loc 1 387 36 is_stmt 0 view .LVU119
 418 0038 CDE90200 		strd	r0, r0, [sp, #8]
 389:Core/Src/main.c ****   {
 419              		.loc 1 389 3 is_stmt 1 view .LVU120
 389:Core/Src/main.c ****   {
 420              		.loc 1 389 7 is_stmt 0 view .LVU121
 421 003c 6846     		mov	r0, sp
 422 003e FFF7FEFF 		bl	HAL_RCC_ClockConfig
 423              	.LVL34:
 389:Core/Src/main.c ****   {
 424              		.loc 1 389 6 discriminator 1 view .LVU122
 425 0042 08B1     		cbz	r0, .L12
ARM GAS  C:\Users\User\AppData\Local\Temp\cciKCUxe.s 			page 41


 391:Core/Src/main.c ****   }
 426              		.loc 1 391 5 is_stmt 1 view .LVU123
 427              	.LBB27:
 428              	.LBI27:
 808:Core/Src/main.c **** {
 429              		.loc 1 808 6 view .LVU124
 812:Core/Src/main.c ****   while (1)
 430              		.loc 1 812 3 view .LVU125
 431              	.LBB28:
 432              	.LBI28:
 960:Drivers/CMSIS/Include/cmsis_gcc.h **** {
 433              		.loc 2 960 27 view .LVU126
 434              	.LBB29:
 435              		.loc 2 962 3 view .LVU127
 436              		.syntax unified
 437              	@ 962 "Drivers/CMSIS/Include/cmsis_gcc.h" 1
 438 0044 72B6     		cpsid i
 439              	@ 0 "" 2
 440              		.thumb
 441              		.syntax unified
 442              	.L16:
 443              	.LBE29:
 444              	.LBE28:
 813:Core/Src/main.c ****   {
 445              		.loc 1 813 3 view .LVU128
 446              		.loc 1 815 3 view .LVU129
 813:Core/Src/main.c ****   {
 447              		.loc 1 813 9 view .LVU130
 448 0046 FEE7     		b	.L16
 449              	.L12:
 450              	.LBE27:
 393:Core/Src/main.c **** 
 451              		.loc 1 393 1 is_stmt 0 view .LVU131
 452 0048 13B0     		add	sp, sp, #76
 453              	.LCFI5:
 454              		.cfi_def_cfa_offset 4
 455              		@ sp needed
 456 004a 5DF804FB 		ldr	pc, [sp], #4
 457              		.cfi_endproc
 458              	.LFE135:
 460              		.global	__aeabi_i2d
 461              		.global	__aeabi_ddiv
 462              		.global	__aeabi_dmul
 463              		.global	__aeabi_dsub
 464              		.global	__aeabi_dadd
 465              		.global	__aeabi_dcmple
 466              		.section	.text.calculate_mandelbrot_double,"ax",%progbits
 467              		.align	1
 468              		.global	calculate_mandelbrot_double
 469              		.syntax unified
 470              		.thumb
 471              		.thumb_func
 473              	calculate_mandelbrot_double:
 474              	.LVL35:
 475              	.LFB138:
 484:Core/Src/main.c ****     uint64_t mandelbrot_sum = 0;
 476              		.loc 1 484 80 is_stmt 1 view -0
ARM GAS  C:\Users\User\AppData\Local\Temp\cciKCUxe.s 			page 42


 477              		.cfi_startproc
 478              		@ args = 0, pretend = 0, frame = 48
 479              		@ frame_needed = 0, uses_anonymous_args = 0
 485:Core/Src/main.c ****     //TODO: Complete the function implementation
 480              		.loc 1 485 5 view .LVU133
 489:Core/Src/main.c ****             // Loop through each pixel (x coordinate)
 481              		.loc 1 489 9 view .LVU134
 482              	.LBB30:
 489:Core/Src/main.c ****             // Loop through each pixel (x coordinate)
 483              		.loc 1 489 14 view .LVU135
 489:Core/Src/main.c ****             // Loop through each pixel (x coordinate)
 484              		.loc 1 489 14 is_stmt 0 view .LVU136
 485              	.LBE30:
 484:Core/Src/main.c ****     uint64_t mandelbrot_sum = 0;
 486              		.loc 1 484 80 view .LVU137
 487 0000 2DE9F04F 		push	{r4, r5, r6, r7, r8, r9, r10, fp, lr}
 488              	.LCFI6:
 489              		.cfi_def_cfa_offset 36
 490              		.cfi_offset 4, -36
 491              		.cfi_offset 5, -32
 492              		.cfi_offset 6, -28
 493              		.cfi_offset 7, -24
 494              		.cfi_offset 8, -20
 495              		.cfi_offset 9, -16
 496              		.cfi_offset 10, -12
 497              		.cfi_offset 11, -8
 498              		.cfi_offset 14, -4
 499 0004 8DB0     		sub	sp, sp, #52
 500              	.LCFI7:
 501              		.cfi_def_cfa_offset 88
 502              	.LBB36:
 489:Core/Src/main.c ****             // Loop through each pixel (x coordinate)
 503              		.loc 1 489 18 view .LVU138
 504 0006 4FF0000A 		mov	r10, #0
 505              	.LBE36:
 484:Core/Src/main.c ****     uint64_t mandelbrot_sum = 0;
 506              		.loc 1 484 80 view .LVU139
 507 000a 0A90     		str	r0, [sp, #40]
 508 000c 8946     		mov	r9, r1
 509 000e 0B92     		str	r2, [sp, #44]
 485:Core/Src/main.c ****     //TODO: Complete the function implementation
 510              		.loc 1 485 14 view .LVU140
 511 0010 5546     		mov	r5, r10
 512 0012 D046     		mov	r8, r10
 513              	.LVL36:
 514              	.L18:
 515              	.LBB37:
 489:Core/Src/main.c ****             // Loop through each pixel (x coordinate)
 516              		.loc 1 489 27 is_stmt 1 discriminator 1 view .LVU141
 517 0014 CA45     		cmp	r10, r9
 518 0016 C0F28480 		blt	.L25
 519              	.LBE37:
 524:Core/Src/main.c **** }
 520              		.loc 1 524 9 view .LVU142
 525:Core/Src/main.c **** 
 521              		.loc 1 525 1 is_stmt 0 view .LVU143
 522 001a 2846     		mov	r0, r5
ARM GAS  C:\Users\User\AppData\Local\Temp\cciKCUxe.s 			page 43


 523 001c 4146     		mov	r1, r8
 524 001e 0DB0     		add	sp, sp, #52
 525              	.LCFI8:
 526              		.cfi_remember_state
 527              		.cfi_def_cfa_offset 36
 528              		@ sp needed
 529 0020 BDE8F08F 		pop	{r4, r5, r6, r7, r8, r9, r10, fp, pc}
 530              	.LVL37:
 531              	.L24:
 532              	.LCFI9:
 533              		.cfi_restore_state
 534              	.LBB38:
 535              	.LBB31:
 536              	.LBB32:
 493:Core/Src/main.c **** 
 537              		.loc 1 493 17 is_stmt 1 view .LVU144
 493:Core/Src/main.c **** 
 538              		.loc 1 493 30 is_stmt 0 view .LVU145
 539 0024 5846     		mov	r0, fp
 540 0026 FFF7FEFF 		bl	__aeabi_i2d
 541              	.LVL38:
 542 002a 0646     		mov	r6, r0
 493:Core/Src/main.c **** 
 543              		.loc 1 493 40 view .LVU146
 544 002c 0A98     		ldr	r0, [sp, #40]
 493:Core/Src/main.c **** 
 545              		.loc 1 493 30 view .LVU147
 546 002e 0F46     		mov	r7, r1
 493:Core/Src/main.c **** 
 547              		.loc 1 493 40 view .LVU148
 548 0030 FFF7FEFF 		bl	__aeabi_i2d
 549              	.LVL39:
 550 0034 0246     		mov	r2, r0
 551 0036 0B46     		mov	r3, r1
 552 0038 3046     		mov	r0, r6
 553 003a 3946     		mov	r1, r7
 554 003c FFF7FEFF 		bl	__aeabi_ddiv
 555              	.LVL40:
 493:Core/Src/main.c **** 
 556              		.loc 1 493 49 view .LVU149
 557 0040 3B4B     		ldr	r3, .L26+8
 558 0042 0022     		movs	r2, #0
 559 0044 FFF7FEFF 		bl	__aeabi_dmul
 560              	.LVL41:
 493:Core/Src/main.c **** 
 561              		.loc 1 493 24 view .LVU150
 562 0048 3A4B     		ldr	r3, .L26+12
 563 004a 0022     		movs	r2, #0
 564 004c FFF7FEFF 		bl	__aeabi_dsub
 565              	.LVL42:
 566 0050 CDE90601 		strd	r0, [sp, #24]
 567              	.LVL43:
 496:Core/Src/main.c **** 
 568              		.loc 1 496 17 is_stmt 1 view .LVU151
 496:Core/Src/main.c **** 
 569              		.loc 1 496 30 is_stmt 0 view .LVU152
 570 0054 5046     		mov	r0, r10
ARM GAS  C:\Users\User\AppData\Local\Temp\cciKCUxe.s 			page 44


 571              	.LVL44:
 496:Core/Src/main.c **** 
 572              		.loc 1 496 30 view .LVU153
 573 0056 FFF7FEFF 		bl	__aeabi_i2d
 574              	.LVL45:
 575 005a 0646     		mov	r6, r0
 496:Core/Src/main.c **** 
 576              		.loc 1 496 40 view .LVU154
 577 005c 4846     		mov	r0, r9
 496:Core/Src/main.c **** 
 578              		.loc 1 496 30 view .LVU155
 579 005e 0F46     		mov	r7, r1
 496:Core/Src/main.c **** 
 580              		.loc 1 496 40 view .LVU156
 581 0060 FFF7FEFF 		bl	__aeabi_i2d
 582              	.LVL46:
 583 0064 0246     		mov	r2, r0
 584 0066 0B46     		mov	r3, r1
 585 0068 3046     		mov	r0, r6
 586 006a 3946     		mov	r1, r7
 587 006c FFF7FEFF 		bl	__aeabi_ddiv
 588              	.LVL47:
 589 0070 0246     		mov	r2, r0
 590 0072 0B46     		mov	r3, r1
 496:Core/Src/main.c **** 
 591              		.loc 1 496 50 view .LVU157
 592 0074 FFF7FEFF 		bl	__aeabi_dadd
 593              	.LVL48:
 496:Core/Src/main.c **** 
 594              		.loc 1 496 24 view .LVU158
 595 0078 2F4B     		ldr	r3, .L26+16
 596 007a 0022     		movs	r2, #0
 597 007c FFF7FEFF 		bl	__aeabi_dsub
 598              	.LVL49:
 500:Core/Src/main.c ****                 int iteration = 0;
 599              		.loc 1 500 24 view .LVU159
 600 0080 9FED297B 		vldr.64	d7, .L26
 496:Core/Src/main.c **** 
 601              		.loc 1 496 24 view .LVU160
 602 0084 CDE90801 		strd	r0, [sp, #32]
 603              	.LVL50:
 499:Core/Src/main.c ****                 double yi = 0.0;
 604              		.loc 1 499 17 is_stmt 1 view .LVU161
 500:Core/Src/main.c ****                 int iteration = 0;
 605              		.loc 1 500 17 view .LVU162
 501:Core/Src/main.c **** 
 606              		.loc 1 501 17 view .LVU163
 504:Core/Src/main.c ****                        ((xi * xi + yi * yi) <= 4.0)) {
 607              		.loc 1 504 17 view .LVU164
 500:Core/Src/main.c ****                 int iteration = 0;
 608              		.loc 1 500 24 is_stmt 0 view .LVU165
 609 0088 8DED007B 		vstr.64	d7, [sp]
 499:Core/Src/main.c ****                 double yi = 0.0;
 610              		.loc 1 499 24 view .LVU166
 611 008c 57EC176B 		vmov	r6, r7, d7
 501:Core/Src/main.c **** 
 612              		.loc 1 501 21 view .LVU167
ARM GAS  C:\Users\User\AppData\Local\Temp\cciKCUxe.s 			page 45


 613 0090 0024     		movs	r4, #0
 614              	.LVL51:
 615              	.L19:
 504:Core/Src/main.c ****                        ((xi * xi + yi * yi) <= 4.0)) {
 616              		.loc 1 504 51 is_stmt 1 view .LVU168
 617 0092 0B9B     		ldr	r3, [sp, #44]
 618 0094 9C42     		cmp	r4, r3
 619 0096 0ADB     		blt	.L20
 620              	.L23:
 520:Core/Src/main.c ****             }
 621              		.loc 1 520 17 view .LVU169
 520:Core/Src/main.c ****             }
 622              		.loc 1 520 32 is_stmt 0 view .LVU170
 623 0098 6519     		adds	r5, r4, r5
 624              	.LVL52:
 520:Core/Src/main.c ****             }
 625              		.loc 1 520 32 view .LVU171
 626 009a 48EBE478 		adc	r8, r8, r4, asr #31
 627              	.LVL53:
 520:Core/Src/main.c ****             }
 628              		.loc 1 520 32 view .LVU172
 629              	.LBE32:
 491:Core/Src/main.c ****                 // Calculate x0 = (x / width) * 3.5 - 2.5
 630              		.loc 1 491 41 is_stmt 1 discriminator 2 view .LVU173
 631 009e 0BF1010B 		add	fp, fp, #1
 632              	.LVL54:
 633              	.L21:
 491:Core/Src/main.c ****                 // Calculate x0 = (x / width) * 3.5 - 2.5
 634              		.loc 1 491 31 discriminator 1 view .LVU174
 635 00a2 0A9B     		ldr	r3, [sp, #40]
 636 00a4 9B45     		cmp	fp, r3
 637 00a6 BDDB     		blt	.L24
 638              	.LBE31:
 489:Core/Src/main.c ****             // Loop through each pixel (x coordinate)
 639              		.loc 1 489 38 discriminator 2 view .LVU175
 640 00a8 0AF1010A 		add	r10, r10, #1
 641              	.LVL55:
 489:Core/Src/main.c ****             // Loop through each pixel (x coordinate)
 642              		.loc 1 489 38 is_stmt 0 discriminator 2 view .LVU176
 643 00ac B2E7     		b	.L18
 644              	.LVL56:
 645              	.L20:
 646              	.LBB35:
 647              	.LBB34:
 505:Core/Src/main.c **** 
 648              		.loc 1 505 29 view .LVU177
 649 00ae 3246     		mov	r2, r6
 650 00b0 3B46     		mov	r3, r7
 651 00b2 3046     		mov	r0, r6
 652 00b4 3946     		mov	r1, r7
 653 00b6 FFF7FEFF 		bl	__aeabi_dmul
 654              	.LVL57:
 505:Core/Src/main.c **** 
 655              		.loc 1 505 39 view .LVU178
 656 00ba DDE90023 		ldrd	r2, [sp]
 505:Core/Src/main.c **** 
 657              		.loc 1 505 29 view .LVU179
ARM GAS  C:\Users\User\AppData\Local\Temp\cciKCUxe.s 			page 46


 658 00be CDE90201 		strd	r0, [sp, #8]
 505:Core/Src/main.c **** 
 659              		.loc 1 505 39 view .LVU180
 660 00c2 1046     		mov	r0, r2
 661 00c4 1946     		mov	r1, r3
 662 00c6 FFF7FEFF 		bl	__aeabi_dmul
 663              	.LVL58:
 505:Core/Src/main.c **** 
 664              		.loc 1 505 34 view .LVU181
 665 00ca 0246     		mov	r2, r0
 666 00cc 0B46     		mov	r3, r1
 505:Core/Src/main.c **** 
 667              		.loc 1 505 39 view .LVU182
 668 00ce CDE90401 		strd	r0, [sp, #16]
 505:Core/Src/main.c **** 
 669              		.loc 1 505 34 view .LVU183
 670 00d2 DDE90201 		ldrd	r0, [sp, #8]
 671 00d6 FFF7FEFF 		bl	__aeabi_dadd
 672              	.LVL59:
 504:Core/Src/main.c ****                        ((xi * xi + yi * yi) <= 4.0)) {
 673              		.loc 1 504 51 discriminator 1 view .LVU184
 674 00da 184B     		ldr	r3, .L26+20
 675 00dc 0022     		movs	r2, #0
 676 00de FFF7FEFF 		bl	__aeabi_dcmple
 677              	.LVL60:
 678 00e2 0028     		cmp	r0, #0
 679 00e4 D8D0     		beq	.L23
 680              	.LBB33:
 508:Core/Src/main.c **** 
 681              		.loc 1 508 21 is_stmt 1 view .LVU185
 682              	.LVL61:
 511:Core/Src/main.c **** 
 683              		.loc 1 511 21 view .LVU186
 511:Core/Src/main.c **** 
 684              		.loc 1 511 30 is_stmt 0 view .LVU187
 685 00e6 3246     		mov	r2, r6
 686 00e8 3B46     		mov	r3, r7
 687 00ea 3046     		mov	r0, r6
 688 00ec 3946     		mov	r1, r7
 689 00ee FFF7FEFF 		bl	__aeabi_dadd
 690              	.LVL62:
 511:Core/Src/main.c **** 
 691              		.loc 1 511 35 view .LVU188
 692 00f2 DDE90023 		ldrd	r2, [sp]
 693 00f6 FFF7FEFF 		bl	__aeabi_dmul
 694              	.LVL63:
 511:Core/Src/main.c **** 
 695              		.loc 1 511 24 view .LVU189
 696 00fa DDE90823 		ldrd	r2, [sp, #32]
 697 00fe FFF7FEFF 		bl	__aeabi_dadd
 698              	.LVL64:
 508:Core/Src/main.c **** 
 699              		.loc 1 508 28 view .LVU190
 700 0102 DDE90423 		ldrd	r2, [sp, #16]
 511:Core/Src/main.c **** 
 701              		.loc 1 511 24 view .LVU191
 702 0106 CDE90001 		strd	r0, [sp]
ARM GAS  C:\Users\User\AppData\Local\Temp\cciKCUxe.s 			page 47


 703              	.LVL65:
 514:Core/Src/main.c **** 
 704              		.loc 1 514 21 is_stmt 1 view .LVU192
 508:Core/Src/main.c **** 
 705              		.loc 1 508 28 is_stmt 0 view .LVU193
 706 010a DDE90201 		ldrd	r0, [sp, #8]
 707              	.LVL66:
 508:Core/Src/main.c **** 
 708              		.loc 1 508 28 view .LVU194
 709 010e FFF7FEFF 		bl	__aeabi_dsub
 710              	.LVL67:
 514:Core/Src/main.c **** 
 711              		.loc 1 514 24 view .LVU195
 712 0112 DDE90623 		ldrd	r2, [sp, #24]
 713 0116 FFF7FEFF 		bl	__aeabi_dadd
 714              	.LVL68:
 516:Core/Src/main.c ****                 }
 715              		.loc 1 516 30 view .LVU196
 716 011a 0134     		adds	r4, r4, #1
 717              	.LVL69:
 514:Core/Src/main.c **** 
 718              		.loc 1 514 24 view .LVU197
 719 011c 0646     		mov	r6, r0
 720              	.LVL70:
 514:Core/Src/main.c **** 
 721              		.loc 1 514 24 view .LVU198
 722 011e 0F46     		mov	r7, r1
 723              	.LVL71:
 516:Core/Src/main.c ****                 }
 724              		.loc 1 516 21 is_stmt 1 view .LVU199
 516:Core/Src/main.c ****                 }
 725              		.loc 1 516 21 is_stmt 0 view .LVU200
 726 0120 B7E7     		b	.L19
 727              	.LVL72:
 728              	.L25:
 516:Core/Src/main.c ****                 }
 729              		.loc 1 516 21 view .LVU201
 730              	.LBE33:
 731              	.LBE34:
 491:Core/Src/main.c ****                 // Calculate x0 = (x / width) * 3.5 - 2.5
 732              		.loc 1 491 22 view .LVU202
 733 0122 4FF0000B 		mov	fp, #0
 734 0126 BCE7     		b	.L21
 735              	.L27:
 736              		.align	3
 737              	.L26:
 738 0128 00000000 		.word	0
 739 012c 00000000 		.word	0
 740 0130 00000C40 		.word	1074528256
 741 0134 00000440 		.word	1074003968
 742 0138 0000F03F 		.word	1072693248
 743 013c 00001040 		.word	1074790400
 744              	.LBE35:
 745              	.LBE38:
 746              		.cfi_endproc
 747              	.LFE138:
 749              		.section	.text.MX_DWT_Init,"ax",%progbits
ARM GAS  C:\Users\User\AppData\Local\Temp\cciKCUxe.s 			page 48


 750              		.align	1
 751              		.global	MX_DWT_Init
 752              		.syntax unified
 753              		.thumb
 754              		.thumb_func
 756              	MX_DWT_Init:
 757              	.LFB139:
 528:Core/Src/main.c ****     // Enable DWT counter
 758              		.loc 1 528 24 is_stmt 1 view -0
 759              		.cfi_startproc
 760              		@ args = 0, pretend = 0, frame = 0
 761              		@ frame_needed = 0, uses_anonymous_args = 0
 762              		@ link register save eliminated.
 530:Core/Src/main.c ****     DWT->CTRL |= DWT_CTRL_CYCCNTENA_Msk;
 763              		.loc 1 530 5 view .LVU204
 530:Core/Src/main.c ****     DWT->CTRL |= DWT_CTRL_CYCCNTENA_Msk;
 764              		.loc 1 530 14 is_stmt 0 view .LVU205
 765 0000 074A     		ldr	r2, .L29
 766 0002 D2F8FC30 		ldr	r3, [r2, #252]
 530:Core/Src/main.c ****     DWT->CTRL |= DWT_CTRL_CYCCNTENA_Msk;
 767              		.loc 1 530 22 view .LVU206
 768 0006 43F08073 		orr	r3, r3, #16777216
 769 000a C2F8FC30 		str	r3, [r2, #252]
 531:Core/Src/main.c ****     
 770              		.loc 1 531 5 is_stmt 1 view .LVU207
 531:Core/Src/main.c ****     
 771              		.loc 1 531 8 is_stmt 0 view .LVU208
 772 000e 054B     		ldr	r3, .L29+4
 773 0010 1A68     		ldr	r2, [r3]
 531:Core/Src/main.c ****     
 774              		.loc 1 531 15 view .LVU209
 775 0012 42F00102 		orr	r2, r2, #1
 776 0016 1A60     		str	r2, [r3]
 534:Core/Src/main.c **** }
 777              		.loc 1 534 5 is_stmt 1 view .LVU210
 534:Core/Src/main.c **** }
 778              		.loc 1 534 17 is_stmt 0 view .LVU211
 779 0018 0022     		movs	r2, #0
 780 001a 5A60     		str	r2, [r3, #4]
 535:Core/Src/main.c **** 
 781              		.loc 1 535 1 view .LVU212
 782 001c 7047     		bx	lr
 783              	.L30:
 784 001e 00BF     		.align	2
 785              	.L29:
 786 0020 00ED00E0 		.word	-536810240
 787 0024 001000E0 		.word	-536866816
 788              		.cfi_endproc
 789              	.LFE139:
 791              		.section	.text.calculate_single_pixel_mandelbrot_fixed,"ax",%progbits
 792              		.align	1
 793              		.global	calculate_single_pixel_mandelbrot_fixed
 794              		.syntax unified
 795              		.thumb
 796              		.thumb_func
 798              	calculate_single_pixel_mandelbrot_fixed:
 799              	.LVL73:
ARM GAS  C:\Users\User\AppData\Local\Temp\cciKCUxe.s 			page 49


 800              	.LFB140:
 540:Core/Src/main.c ****     // Fixed-point scaling factor (10^6 as suggested in Appendix B)
 801              		.loc 1 540 101 is_stmt 1 view -0
 802              		.cfi_startproc
 803              		@ args = 4, pretend = 0, frame = 16
 804              		@ frame_needed = 0, uses_anonymous_args = 0
 542:Core/Src/main.c ****     
 805              		.loc 1 542 5 view .LVU214
 545:Core/Src/main.c ****     int64_t scaled_2_0 = 2 * SCALE;                      // 2.0 * SCALE
 806              		.loc 1 545 5 view .LVU215
 546:Core/Src/main.c ****     int64_t scaled_2_5 = 2 * SCALE + (5 * SCALE) / 10;  // 2.5 * SCALE
 807              		.loc 1 546 5 view .LVU216
 547:Core/Src/main.c ****     int64_t scaled_1_0 = SCALE;                          // 1.0 * SCALE
 808              		.loc 1 547 5 view .LVU217
 548:Core/Src/main.c ****     int64_t scaled_4 = 4 * SCALE;                        // 4 * SCALE
 809              		.loc 1 548 5 view .LVU218
 549:Core/Src/main.c ****     int64_t scaled_2 = 2 * SCALE;                        // 2 * SCALE
 810              		.loc 1 549 5 view .LVU219
 550:Core/Src/main.c ****     
 811              		.loc 1 550 5 view .LVU220
 553:Core/Src/main.c ****     
 812              		.loc 1 553 5 view .LVU221
 540:Core/Src/main.c ****     // Fixed-point scaling factor (10^6 as suggested in Appendix B)
 813              		.loc 1 540 101 is_stmt 0 view .LVU222
 814 0000 2DE9F04F 		push	{r4, r5, r6, r7, r8, r9, r10, fp, lr}
 815              	.LCFI10:
 816              		.cfi_def_cfa_offset 36
 817              		.cfi_offset 4, -36
 818              		.cfi_offset 5, -32
 819              		.cfi_offset 6, -28
 820              		.cfi_offset 7, -24
 821              		.cfi_offset 8, -20
 822              		.cfi_offset 9, -16
 823              		.cfi_offset 10, -12
 824              		.cfi_offset 11, -8
 825              		.cfi_offset 14, -4
 826 0004 0C46     		mov	r4, r1
 553:Core/Src/main.c ****     
 827              		.loc 1 553 22 view .LVU223
 828 0006 3749     		ldr	r1, .L37
 829              	.LVL74:
 556:Core/Src/main.c ****     
 830              		.loc 1 556 22 view .LVU224
 831 0008 374F     		ldr	r7, .L37+4
 540:Core/Src/main.c ****     // Fixed-point scaling factor (10^6 as suggested in Appendix B)
 832              		.loc 1 540 101 view .LVU225
 833 000a 85B0     		sub	sp, sp, #20
 834              	.LCFI11:
 835              		.cfi_def_cfa_offset 56
 540:Core/Src/main.c ****     // Fixed-point scaling factor (10^6 as suggested in Appendix B)
 836              		.loc 1 540 101 view .LVU226
 837 000c 1D46     		mov	r5, r3
 553:Core/Src/main.c ****     
 838              		.loc 1 553 36 view .LVU227
 839 000e 80FB0101 		smull	r0, r1, r0, r1
 840              	.LVL75:
 553:Core/Src/main.c ****     
ARM GAS  C:\Users\User\AppData\Local\Temp\cciKCUxe.s 			page 50


 841              		.loc 1 553 36 view .LVU228
 842 0012 D317     		asrs	r3, r2, #31
 843              	.LVL76:
 553:Core/Src/main.c ****     
 844              		.loc 1 553 36 view .LVU229
 845 0014 FFF7FEFF 		bl	__aeabi_ldivmod
 846              	.LVL77:
 553:Core/Src/main.c ****     
 847              		.loc 1 553 13 view .LVU230
 848 0018 344B     		ldr	r3, .L37+8
 849 001a C318     		adds	r3, r0, r3
 850 001c 0093     		str	r3, [sp]
 851 001e 61F10003 		sbc	r3, r1, #0
 852 0022 0193     		str	r3, [sp, #4]
 853              	.LVL78:
 556:Core/Src/main.c ****     
 854              		.loc 1 556 5 is_stmt 1 view .LVU231
 556:Core/Src/main.c ****     
 855              		.loc 1 556 36 is_stmt 0 view .LVU232
 856 0024 2A46     		mov	r2, r5
 857 0026 EB17     		asrs	r3, r5, #31
 858              	.LVL79:
 556:Core/Src/main.c ****     
 859              		.loc 1 556 36 view .LVU233
 860 0028 84FB0701 		smull	r0, r1, r4, r7
 861 002c FFF7FEFF 		bl	__aeabi_ldivmod
 862              	.LVL80:
 556:Core/Src/main.c ****     
 863              		.loc 1 556 13 view .LVU234
 864 0030 2F4B     		ldr	r3, .L37+12
 865 0032 C318     		adds	r3, r0, r3
 561:Core/Src/main.c ****     
 866              		.loc 1 561 9 view .LVU235
 867 0034 4FF00008 		mov	r8, #0
 556:Core/Src/main.c ****     
 868              		.loc 1 556 13 view .LVU236
 869 0038 0293     		str	r3, [sp, #8]
 870 003a 61F10003 		sbc	r3, r1, #0
 871 003e 0393     		str	r3, [sp, #12]
 872              	.LVL81:
 559:Core/Src/main.c ****     int64_t yi = 0;
 873              		.loc 1 559 5 is_stmt 1 view .LVU237
 560:Core/Src/main.c ****     int iteration = 0;
 874              		.loc 1 560 5 view .LVU238
 561:Core/Src/main.c ****     
 875              		.loc 1 561 5 view .LVU239
 564:Core/Src/main.c ****         // temp = xi^2 - yi^2
 876              		.loc 1 564 5 view .LVU240
 560:Core/Src/main.c ****     int iteration = 0;
 877              		.loc 1 560 13 is_stmt 0 view .LVU241
 878 0040 4546     		mov	r5, r8
 879              	.LVL82:
 560:Core/Src/main.c ****     int iteration = 0;
 880              		.loc 1 560 13 view .LVU242
 881 0042 4646     		mov	r6, r8
 559:Core/Src/main.c ****     int64_t yi = 0;
 882              		.loc 1 559 13 view .LVU243
ARM GAS  C:\Users\User\AppData\Local\Temp\cciKCUxe.s 			page 51


 883 0044 4046     		mov	r0, r8
 884 0046 4146     		mov	r1, r8
 885              	.LVL83:
 886              	.L32:
 564:Core/Src/main.c ****         // temp = xi^2 - yi^2
 887              		.loc 1 564 33 is_stmt 1 view .LVU244
 888 0048 0E9B     		ldr	r3, [sp, #56]
 889 004a 9845     		cmp	r8, r3
 890 004c 16DA     		bge	.L35
 564:Core/Src/main.c ****         // temp = xi^2 - yi^2
 891              		.loc 1 564 41 is_stmt 0 discriminator 1 view .LVU245
 892 004e 00FB01F3 		mul	r3, r0, r1
 893 0052 A0FB0049 		umull	r4, r9, r0, r0
 894 0056 09EB4309 		add	r9, r9, r3, lsl #1
 564:Core/Src/main.c ****         // temp = xi^2 - yi^2
 895              		.loc 1 564 51 discriminator 1 view .LVU246
 896 005a A5FB05BA 		umull	fp, r10, r5, r5
 897 005e 05FB06F3 		mul	r3, r5, r6
 898 0062 0AEB430A 		add	r10, r10, r3, lsl #1
 564:Core/Src/main.c ****         // temp = xi^2 - yi^2
 899              		.loc 1 564 33 discriminator 1 view .LVU247
 900 0066 234B     		ldr	r3, .L37+16
 564:Core/Src/main.c ****         // temp = xi^2 - yi^2
 901              		.loc 1 564 46 discriminator 1 view .LVU248
 902 0068 14EB0B02 		adds	r2, r4, fp
 903 006c 49EB0A0C 		adc	ip, r9, r10
 564:Core/Src/main.c ****         // temp = xi^2 - yi^2
 904              		.loc 1 564 33 discriminator 1 view .LVU249
 905 0070 9342     		cmp	r3, r2
 906 0072 4FF00003 		mov	r3, #0
 907 0076 73EB0C03 		sbcs	r3, r3, ip
 908 007a 05DA     		bge	.L34
 909              	.L35:
 577:Core/Src/main.c **** }
 910              		.loc 1 577 5 is_stmt 1 view .LVU250
 577:Core/Src/main.c **** }
 911              		.loc 1 577 12 is_stmt 0 view .LVU251
 912 007c 4FEAE871 		asr	r1, r8, #31
 913              	.LVL84:
 578:Core/Src/main.c **** 
 914              		.loc 1 578 1 view .LVU252
 915 0080 4046     		mov	r0, r8
 578:Core/Src/main.c **** 
 916              		.loc 1 578 1 view .LVU253
 917 0082 05B0     		add	sp, sp, #20
 918              	.LCFI12:
 919              		.cfi_remember_state
 920              		.cfi_def_cfa_offset 36
 921              	.LVL85:
 578:Core/Src/main.c **** 
 922              		.loc 1 578 1 view .LVU254
 923              		@ sp needed
 924 0084 BDE8F08F 		pop	{r4, r5, r6, r7, r8, r9, r10, fp, pc}
 925              	.LVL86:
 926              	.L34:
 927              	.LCFI13:
 928              		.cfi_restore_state
ARM GAS  C:\Users\User\AppData\Local\Temp\cciKCUxe.s 			page 52


 929              	.LBB39:
 566:Core/Src/main.c ****         
 930              		.loc 1 566 9 is_stmt 1 view .LVU255
 569:Core/Src/main.c ****         
 931              		.loc 1 569 9 view .LVU256
 569:Core/Src/main.c ****         
 932              		.loc 1 569 30 is_stmt 0 view .LVU257
 933 0088 174B     		ldr	r3, .L37+4
 569:Core/Src/main.c ****         
 934              		.loc 1 569 36 view .LVU258
 935 008a 1B4A     		ldr	r2, .L37+20
 569:Core/Src/main.c ****         
 936              		.loc 1 569 30 view .LVU259
 937 008c 4643     		muls	r6, r0, r6
 938              	.LVL87:
 569:Core/Src/main.c ****         
 939              		.loc 1 569 30 view .LVU260
 940 008e 05FB0166 		mla	r6, r5, r1, r6
 941 0092 A0FB0505 		umull	r0, r5, r0, r5
 942              	.LVL88:
 569:Core/Src/main.c ****         
 943              		.loc 1 569 30 view .LVU261
 944 0096 2E44     		add	r6, r6, r5
 945 0098 A0FB0301 		umull	r0, r1, r0, r3
 569:Core/Src/main.c ****         
 946              		.loc 1 569 36 view .LVU262
 947 009c 07FB0611 		mla	r1, r7, r6, r1
 948 00a0 0023     		movs	r3, #0
 949 00a2 FFF7FEFF 		bl	__aeabi_ldivmod
 950              	.LVL89:
 569:Core/Src/main.c ****         
 951              		.loc 1 569 12 view .LVU263
 952 00a6 029B     		ldr	r3, [sp, #8]
 566:Core/Src/main.c ****         
 953              		.loc 1 566 35 view .LVU264
 954 00a8 134A     		ldr	r2, .L37+20
 569:Core/Src/main.c ****         
 955              		.loc 1 569 12 view .LVU265
 956 00aa 1D18     		adds	r5, r3, r0
 957 00ac 039B     		ldr	r3, [sp, #12]
 566:Core/Src/main.c ****         
 958              		.loc 1 566 35 view .LVU266
 959 00ae 2046     		mov	r0, r4
 569:Core/Src/main.c ****         
 960              		.loc 1 569 12 view .LVU267
 961 00b0 43EB0106 		adc	r6, r3, r1
 962              	.LVL90:
 572:Core/Src/main.c ****         
 963              		.loc 1 572 9 is_stmt 1 view .LVU268
 566:Core/Src/main.c ****         
 964              		.loc 1 566 35 is_stmt 0 view .LVU269
 965 00b4 0023     		movs	r3, #0
 966 00b6 4946     		mov	r1, r9
 967 00b8 FFF7FEFF 		bl	__aeabi_ldivmod
 968              	.LVL91:
 566:Core/Src/main.c ****         
 969              		.loc 1 566 57 view .LVU270
ARM GAS  C:\Users\User\AppData\Local\Temp\cciKCUxe.s 			page 53


 970 00bc 4FF0FF33 		mov	r3, #-1
 566:Core/Src/main.c ****         
 971              		.loc 1 566 35 view .LVU271
 972 00c0 0446     		mov	r4, r0
 973              	.LVL92:
 566:Core/Src/main.c ****         
 974              		.loc 1 566 35 view .LVU272
 975 00c2 8946     		mov	r9, r1
 566:Core/Src/main.c ****         
 976              		.loc 1 566 57 view .LVU273
 977 00c4 0A4A     		ldr	r2, .L37+12
 978 00c6 5846     		mov	r0, fp
 979 00c8 5146     		mov	r1, r10
 980 00ca FFF7FEFF 		bl	__aeabi_ldivmod
 981              	.LVL93:
 572:Core/Src/main.c ****         
 982              		.loc 1 572 12 view .LVU274
 983 00ce 009B     		ldr	r3, [sp]
 566:Core/Src/main.c ****         
 984              		.loc 1 566 17 view .LVU275
 985 00d0 2418     		adds	r4, r4, r0
 986 00d2 49EB0109 		adc	r9, r9, r1
 572:Core/Src/main.c ****         
 987              		.loc 1 572 12 view .LVU276
 988 00d6 E018     		adds	r0, r4, r3
 989 00d8 019B     		ldr	r3, [sp, #4]
 574:Core/Src/main.c ****     }
 990              		.loc 1 574 18 view .LVU277
 991 00da 08F10108 		add	r8, r8, #1
 992              	.LVL94:
 572:Core/Src/main.c ****         
 993              		.loc 1 572 12 view .LVU278
 994 00de 43EB0901 		adc	r1, r3, r9
 995              	.LVL95:
 574:Core/Src/main.c ****     }
 996              		.loc 1 574 9 is_stmt 1 view .LVU279
 574:Core/Src/main.c ****     }
 997              		.loc 1 574 9 is_stmt 0 view .LVU280
 998 00e2 B1E7     		b	.L32
 999              	.L38:
 1000              		.align	2
 1001              	.L37:
 1002 00e4 E0673500 		.word	3500000
 1003 00e8 80841E00 		.word	2000000
 1004 00ec 60DAD9FF 		.word	-2500000
 1005 00f0 C0BDF0FF 		.word	-1000000
 1006 00f4 00093D00 		.word	4000000
 1007 00f8 40420F00 		.word	1000000
 1008              	.LBE39:
 1009              		.cfi_endproc
 1010              	.LFE140:
 1012              		.section	.text.calculate_single_pixel_mandelbrot_double,"ax",%progbits
 1013              		.align	1
 1014              		.global	calculate_single_pixel_mandelbrot_double
 1015              		.syntax unified
 1016              		.thumb
 1017              		.thumb_func
ARM GAS  C:\Users\User\AppData\Local\Temp\cciKCUxe.s 			page 54


 1019              	calculate_single_pixel_mandelbrot_double:
 1020              	.LVL96:
 1021              	.LFB141:
 581:Core/Src/main.c ****     // Calculate x0 = (x / width) * 3.5 - 2.5
 1022              		.loc 1 581 102 is_stmt 1 view -0
 1023              		.cfi_startproc
 1024              		@ args = 4, pretend = 0, frame = 24
 1025              		@ frame_needed = 0, uses_anonymous_args = 0
 583:Core/Src/main.c ****     
 1026              		.loc 1 583 5 view .LVU282
 581:Core/Src/main.c ****     // Calculate x0 = (x / width) * 3.5 - 2.5
 1027              		.loc 1 581 102 is_stmt 0 view .LVU283
 1028 0000 2DE9F04F 		push	{r4, r5, r6, r7, r8, r9, r10, fp, lr}
 1029              	.LCFI14:
 1030              		.cfi_def_cfa_offset 36
 1031              		.cfi_offset 4, -36
 1032              		.cfi_offset 5, -32
 1033              		.cfi_offset 6, -28
 1034              		.cfi_offset 7, -24
 1035              		.cfi_offset 8, -20
 1036              		.cfi_offset 9, -16
 1037              		.cfi_offset 10, -12
 1038              		.cfi_offset 11, -8
 1039              		.cfi_offset 14, -4
 1040 0004 87B0     		sub	sp, sp, #28
 1041              	.LCFI15:
 1042              		.cfi_def_cfa_offset 64
 581:Core/Src/main.c ****     // Calculate x0 = (x / width) * 3.5 - 2.5
 1043              		.loc 1 581 102 view .LVU284
 1044 0006 1546     		mov	r5, r2
 1045 0008 1F46     		mov	r7, r3
 1046 000a 0C46     		mov	r4, r1
 583:Core/Src/main.c ****     
 1047              		.loc 1 583 18 view .LVU285
 1048 000c FFF7FEFF 		bl	__aeabi_i2d
 1049              	.LVL97:
 583:Core/Src/main.c ****     
 1050              		.loc 1 583 18 view .LVU286
 1051 0010 8046     		mov	r8, r0
 583:Core/Src/main.c ****     
 1052              		.loc 1 583 28 view .LVU287
 1053 0012 2846     		mov	r0, r5
 583:Core/Src/main.c ****     
 1054              		.loc 1 583 18 view .LVU288
 1055 0014 8946     		mov	r9, r1
 583:Core/Src/main.c ****     
 1056              		.loc 1 583 28 view .LVU289
 1057 0016 FFF7FEFF 		bl	__aeabi_i2d
 1058              	.LVL98:
 1059 001a 0246     		mov	r2, r0
 1060 001c 0B46     		mov	r3, r1
 1061 001e 4046     		mov	r0, r8
 1062 0020 4946     		mov	r1, r9
 1063 0022 FFF7FEFF 		bl	__aeabi_ddiv
 1064              	.LVL99:
 583:Core/Src/main.c ****     
 1065              		.loc 1 583 37 view .LVU290
ARM GAS  C:\Users\User\AppData\Local\Temp\cciKCUxe.s 			page 55


 1066 0026 344B     		ldr	r3, .L45
 581:Core/Src/main.c ****     // Calculate x0 = (x / width) * 3.5 - 2.5
 1067              		.loc 1 581 102 view .LVU291
 1068 0028 109E     		ldr	r6, [sp, #64]
 583:Core/Src/main.c ****     
 1069              		.loc 1 583 37 view .LVU292
 1070 002a 0022     		movs	r2, #0
 1071 002c FFF7FEFF 		bl	__aeabi_dmul
 1072              	.LVL100:
 583:Core/Src/main.c ****     
 1073              		.loc 1 583 12 view .LVU293
 1074 0030 324B     		ldr	r3, .L45+4
 1075 0032 0022     		movs	r2, #0
 1076 0034 FFF7FEFF 		bl	__aeabi_dsub
 1077              	.LVL101:
 1078 0038 CDE90201 		strd	r0, [sp, #8]
 1079              	.LVL102:
 586:Core/Src/main.c ****     
 1080              		.loc 1 586 5 is_stmt 1 view .LVU294
 586:Core/Src/main.c ****     
 1081              		.loc 1 586 18 is_stmt 0 view .LVU295
 1082 003c 2046     		mov	r0, r4
 1083              	.LVL103:
 586:Core/Src/main.c ****     
 1084              		.loc 1 586 18 view .LVU296
 1085 003e FFF7FEFF 		bl	__aeabi_i2d
 1086              	.LVL104:
 1087 0042 0446     		mov	r4, r0
 1088              	.LVL105:
 586:Core/Src/main.c ****     
 1089              		.loc 1 586 28 view .LVU297
 1090 0044 3846     		mov	r0, r7
 586:Core/Src/main.c ****     
 1091              		.loc 1 586 18 view .LVU298
 1092 0046 0D46     		mov	r5, r1
 1093              	.LVL106:
 586:Core/Src/main.c ****     
 1094              		.loc 1 586 28 view .LVU299
 1095 0048 FFF7FEFF 		bl	__aeabi_i2d
 1096              	.LVL107:
 1097 004c 0246     		mov	r2, r0
 1098 004e 0B46     		mov	r3, r1
 1099 0050 2046     		mov	r0, r4
 1100 0052 2946     		mov	r1, r5
 1101 0054 FFF7FEFF 		bl	__aeabi_ddiv
 1102              	.LVL108:
 1103 0058 0246     		mov	r2, r0
 1104 005a 0B46     		mov	r3, r1
 586:Core/Src/main.c ****     
 1105              		.loc 1 586 38 view .LVU300
 1106 005c FFF7FEFF 		bl	__aeabi_dadd
 1107              	.LVL109:
 586:Core/Src/main.c ****     
 1108              		.loc 1 586 12 view .LVU301
 1109 0060 274B     		ldr	r3, .L45+8
 1110 0062 0022     		movs	r2, #0
 1111 0064 FFF7FEFF 		bl	__aeabi_dsub
ARM GAS  C:\Users\User\AppData\Local\Temp\cciKCUxe.s 			page 56


 1112              	.LVL110:
 1113 0068 CDE90401 		strd	r0, [sp, #16]
 1114              	.LVL111:
 589:Core/Src/main.c ****     double yi = 0.0;
 1115              		.loc 1 589 5 is_stmt 1 view .LVU302
 590:Core/Src/main.c ****     int iteration = 0;
 1116              		.loc 1 590 5 view .LVU303
 591:Core/Src/main.c ****     
 1117              		.loc 1 591 5 view .LVU304
 594:Core/Src/main.c ****         // temp = xi^2 - yi^2
 1118              		.loc 1 594 5 view .LVU305
 590:Core/Src/main.c ****     int iteration = 0;
 1119              		.loc 1 590 12 is_stmt 0 view .LVU306
 1120 006c 0024     		movs	r4, #0
 1121 006e 0025     		movs	r5, #0
 591:Core/Src/main.c ****     
 1122              		.loc 1 591 9 view .LVU307
 1123 0070 0027     		movs	r7, #0
 1124              	.LVL112:
 589:Core/Src/main.c ****     double yi = 0.0;
 1125              		.loc 1 589 12 view .LVU308
 1126 0072 A046     		mov	r8, r4
 1127 0074 A946     		mov	r9, r5
 1128              	.LVL113:
 1129              	.L40:
 594:Core/Src/main.c ****         // temp = xi^2 - yi^2
 1130              		.loc 1 594 33 is_stmt 1 view .LVU309
 1131 0076 B742     		cmp	r7, r6
 1132 0078 1ADA     		bge	.L43
 594:Core/Src/main.c ****         // temp = xi^2 - yi^2
 1133              		.loc 1 594 41 is_stmt 0 discriminator 1 view .LVU310
 1134 007a 4246     		mov	r2, r8
 1135 007c 4B46     		mov	r3, r9
 1136 007e 4046     		mov	r0, r8
 1137 0080 4946     		mov	r1, r9
 1138 0082 FFF7FEFF 		bl	__aeabi_dmul
 1139              	.LVL114:
 594:Core/Src/main.c ****         // temp = xi^2 - yi^2
 1140              		.loc 1 594 51 discriminator 1 view .LVU311
 1141 0086 2246     		mov	r2, r4
 594:Core/Src/main.c ****         // temp = xi^2 - yi^2
 1142              		.loc 1 594 41 discriminator 1 view .LVU312
 1143 0088 CDE90001 		strd	r0, [sp]
 594:Core/Src/main.c ****         // temp = xi^2 - yi^2
 1144              		.loc 1 594 51 discriminator 1 view .LVU313
 1145 008c 2B46     		mov	r3, r5
 1146 008e 2046     		mov	r0, r4
 1147 0090 2946     		mov	r1, r5
 1148 0092 FFF7FEFF 		bl	__aeabi_dmul
 1149              	.LVL115:
 594:Core/Src/main.c ****         // temp = xi^2 - yi^2
 1150              		.loc 1 594 46 discriminator 1 view .LVU314
 1151 0096 0246     		mov	r2, r0
 1152 0098 0B46     		mov	r3, r1
 594:Core/Src/main.c ****         // temp = xi^2 - yi^2
 1153              		.loc 1 594 51 discriminator 1 view .LVU315
 1154 009a 8246     		mov	r10, r0
ARM GAS  C:\Users\User\AppData\Local\Temp\cciKCUxe.s 			page 57


 1155 009c 8B46     		mov	fp, r1
 594:Core/Src/main.c ****         // temp = xi^2 - yi^2
 1156              		.loc 1 594 46 discriminator 1 view .LVU316
 1157 009e DDE90001 		ldrd	r0, [sp]
 1158 00a2 FFF7FEFF 		bl	__aeabi_dadd
 1159              	.LVL116:
 594:Core/Src/main.c ****         // temp = xi^2 - yi^2
 1160              		.loc 1 594 33 discriminator 1 view .LVU317
 1161 00a6 174B     		ldr	r3, .L45+12
 1162 00a8 0022     		movs	r2, #0
 1163 00aa FFF7FEFF 		bl	__aeabi_dcmple
 1164              	.LVL117:
 1165 00ae 20B9     		cbnz	r0, .L42
 1166              	.L43:
 607:Core/Src/main.c **** }
 1167              		.loc 1 607 5 is_stmt 1 view .LVU318
 607:Core/Src/main.c **** }
 1168              		.loc 1 607 12 is_stmt 0 view .LVU319
 1169 00b0 F917     		asrs	r1, r7, #31
 608:Core/Src/main.c **** 
 1170              		.loc 1 608 1 view .LVU320
 1171 00b2 3846     		mov	r0, r7
 1172 00b4 07B0     		add	sp, sp, #28
 1173              	.LCFI16:
 1174              		.cfi_remember_state
 1175              		.cfi_def_cfa_offset 36
 1176              		@ sp needed
 1177 00b6 BDE8F08F 		pop	{r4, r5, r6, r7, r8, r9, r10, fp, pc}
 1178              	.LVL118:
 1179              	.L42:
 1180              	.LCFI17:
 1181              		.cfi_restore_state
 1182              	.LBB40:
 596:Core/Src/main.c ****         
 1183              		.loc 1 596 9 is_stmt 1 view .LVU321
 599:Core/Src/main.c ****         
 1184              		.loc 1 599 9 view .LVU322
 599:Core/Src/main.c ****         
 1185              		.loc 1 599 18 is_stmt 0 view .LVU323
 1186 00ba 4246     		mov	r2, r8
 1187 00bc 4B46     		mov	r3, r9
 1188 00be 4046     		mov	r0, r8
 1189 00c0 4946     		mov	r1, r9
 1190 00c2 FFF7FEFF 		bl	__aeabi_dadd
 1191              	.LVL119:
 599:Core/Src/main.c ****         
 1192              		.loc 1 599 23 view .LVU324
 1193 00c6 2246     		mov	r2, r4
 1194 00c8 2B46     		mov	r3, r5
 1195 00ca FFF7FEFF 		bl	__aeabi_dmul
 1196              	.LVL120:
 599:Core/Src/main.c ****         
 1197              		.loc 1 599 12 view .LVU325
 1198 00ce DDE90423 		ldrd	r2, [sp, #16]
 1199 00d2 FFF7FEFF 		bl	__aeabi_dadd
 1200              	.LVL121:
 596:Core/Src/main.c ****         
ARM GAS  C:\Users\User\AppData\Local\Temp\cciKCUxe.s 			page 58


 1201              		.loc 1 596 16 view .LVU326
 1202 00d6 5246     		mov	r2, r10
 1203 00d8 5B46     		mov	r3, fp
 599:Core/Src/main.c ****         
 1204              		.loc 1 599 12 view .LVU327
 1205 00da 0446     		mov	r4, r0
 1206              	.LVL122:
 599:Core/Src/main.c ****         
 1207              		.loc 1 599 12 view .LVU328
 1208 00dc 0D46     		mov	r5, r1
 1209              	.LVL123:
 602:Core/Src/main.c ****         
 1210              		.loc 1 602 9 is_stmt 1 view .LVU329
 596:Core/Src/main.c ****         
 1211              		.loc 1 596 16 is_stmt 0 view .LVU330
 1212 00de DDE90001 		ldrd	r0, [sp]
 1213 00e2 FFF7FEFF 		bl	__aeabi_dsub
 1214              	.LVL124:
 602:Core/Src/main.c ****         
 1215              		.loc 1 602 12 view .LVU331
 1216 00e6 DDE90223 		ldrd	r2, [sp, #8]
 1217 00ea FFF7FEFF 		bl	__aeabi_dadd
 1218              	.LVL125:
 604:Core/Src/main.c ****     }
 1219              		.loc 1 604 18 view .LVU332
 1220 00ee 0137     		adds	r7, r7, #1
 1221              	.LVL126:
 602:Core/Src/main.c ****         
 1222              		.loc 1 602 12 view .LVU333
 1223 00f0 8046     		mov	r8, r0
 1224              	.LVL127:
 602:Core/Src/main.c ****         
 1225              		.loc 1 602 12 view .LVU334
 1226 00f2 8946     		mov	r9, r1
 1227              	.LVL128:
 604:Core/Src/main.c ****     }
 1228              		.loc 1 604 9 is_stmt 1 view .LVU335
 604:Core/Src/main.c ****     }
 1229              		.loc 1 604 9 is_stmt 0 view .LVU336
 1230 00f4 BFE7     		b	.L40
 1231              	.L46:
 1232 00f6 00BF     		.align	2
 1233              	.L45:
 1234 00f8 00000C40 		.word	1074528256
 1235 00fc 00000440 		.word	1074003968
 1236 0100 0000F03F 		.word	1072693248
 1237 0104 00001040 		.word	1074790400
 1238              	.LBE40:
 1239              		.cfi_endproc
 1240              	.LFE141:
 1242              		.section	.text.reset_chunk_counters,"ax",%progbits
 1243              		.align	1
 1244              		.global	reset_chunk_counters
 1245              		.syntax unified
 1246              		.thumb
 1247              		.thumb_func
 1249              	reset_chunk_counters:
ARM GAS  C:\Users\User\AppData\Local\Temp\cciKCUxe.s 			page 59


 1250              	.LFB142:
 611:Core/Src/main.c ****     total_chunks_processed = 0;
 1251              		.loc 1 611 33 is_stmt 1 view -0
 1252              		.cfi_startproc
 1253              		@ args = 0, pretend = 0, frame = 0
 1254              		@ frame_needed = 0, uses_anonymous_args = 0
 1255              		@ link register save eliminated.
 612:Core/Src/main.c ****     current_chunk_x = 0;
 1256              		.loc 1 612 5 view .LVU338
 612:Core/Src/main.c ****     current_chunk_x = 0;
 1257              		.loc 1 612 28 is_stmt 0 view .LVU339
 1258 0000 034A     		ldr	r2, .L48
 1259 0002 0023     		movs	r3, #0
 1260 0004 1360     		str	r3, [r2]
 613:Core/Src/main.c ****     current_chunk_y = 0;
 1261              		.loc 1 613 5 is_stmt 1 view .LVU340
 613:Core/Src/main.c ****     current_chunk_y = 0;
 1262              		.loc 1 613 21 is_stmt 0 view .LVU341
 1263 0006 034A     		ldr	r2, .L48+4
 1264 0008 1360     		str	r3, [r2]
 614:Core/Src/main.c **** }
 1265              		.loc 1 614 5 is_stmt 1 view .LVU342
 614:Core/Src/main.c **** }
 1266              		.loc 1 614 21 is_stmt 0 view .LVU343
 1267 000a 034A     		ldr	r2, .L48+8
 1268 000c 1360     		str	r3, [r2]
 615:Core/Src/main.c **** 
 1269              		.loc 1 615 1 view .LVU344
 1270 000e 7047     		bx	lr
 1271              	.L49:
 1272              		.align	2
 1273              	.L48:
 1274 0010 00000000 		.word	total_chunks_processed
 1275 0014 00000000 		.word	current_chunk_x
 1276 0018 00000000 		.word	current_chunk_y
 1277              		.cfi_endproc
 1278              	.LFE142:
 1280              		.section	.text.calculate_mandelbrot_chunk,"ax",%progbits
 1281              		.align	1
 1282              		.global	calculate_mandelbrot_chunk
 1283              		.syntax unified
 1284              		.thumb
 1285              		.thumb_func
 1287              	calculate_mandelbrot_chunk:
 1288              	.LVL129:
 1289              	.LFB143:
 620:Core/Src/main.c ****     
 1290              		.loc 1 620 80 is_stmt 1 view -0
 1291              		.cfi_startproc
 1292              		@ args = 16, pretend = 0, frame = 8
 1293              		@ frame_needed = 0, uses_anonymous_args = 0
 622:Core/Src/main.c ****     
 1294              		.loc 1 622 5 view .LVU346
 625:Core/Src/main.c ****         for (int local_x = 0; local_x < chunk_width; local_x++) {
 1295              		.loc 1 625 5 view .LVU347
 1296              	.LBB41:
 625:Core/Src/main.c ****         for (int local_x = 0; local_x < chunk_width; local_x++) {
ARM GAS  C:\Users\User\AppData\Local\Temp\cciKCUxe.s 			page 60


 1297              		.loc 1 625 10 view .LVU348
 625:Core/Src/main.c ****         for (int local_x = 0; local_x < chunk_width; local_x++) {
 1298              		.loc 1 625 10 is_stmt 0 view .LVU349
 1299              	.LBE41:
 620:Core/Src/main.c ****     
 1300              		.loc 1 620 80 view .LVU350
 1301 0000 2DE9F04F 		push	{r4, r5, r6, r7, r8, r9, r10, fp, lr}
 1302              	.LCFI18:
 1303              		.cfi_def_cfa_offset 36
 1304              		.cfi_offset 4, -36
 1305              		.cfi_offset 5, -32
 1306              		.cfi_offset 6, -28
 1307              		.cfi_offset 7, -24
 1308              		.cfi_offset 8, -20
 1309              		.cfi_offset 9, -16
 1310              		.cfi_offset 10, -12
 1311              		.cfi_offset 11, -8
 1312              		.cfi_offset 14, -4
 1313 0004 85B0     		sub	sp, sp, #20
 1314              	.LCFI19:
 1315              		.cfi_def_cfa_offset 56
 1316              	.LBB47:
 625:Core/Src/main.c ****         for (int local_x = 0; local_x < chunk_width; local_x++) {
 1317              		.loc 1 625 14 view .LVU351
 1318 0006 0024     		movs	r4, #0
 1319              	.LBE47:
 620:Core/Src/main.c ****     
 1320              		.loc 1 620 80 view .LVU352
 1321 0008 8346     		mov	fp, r0
 1322 000a 0391     		str	r1, [sp, #12]
 1323 000c 9146     		mov	r9, r2
 1324 000e 1F46     		mov	r7, r3
 622:Core/Src/main.c ****     
 1325              		.loc 1 622 14 view .LVU353
 1326 0010 2546     		mov	r5, r4
 1327 0012 A046     		mov	r8, r4
 1328              	.LVL130:
 1329              	.L51:
 1330              	.LBB48:
 625:Core/Src/main.c ****         for (int local_x = 0; local_x < chunk_width; local_x++) {
 1331              		.loc 1 625 35 is_stmt 1 discriminator 1 view .LVU354
 1332 0014 BC42     		cmp	r4, r7
 1333 0016 1DDB     		blt	.L56
 1334              	.LBE48:
 646:Core/Src/main.c **** }
 1335              		.loc 1 646 5 view .LVU355
 647:Core/Src/main.c **** 
 1336              		.loc 1 647 1 is_stmt 0 view .LVU356
 1337 0018 2846     		mov	r0, r5
 1338 001a 4146     		mov	r1, r8
 1339 001c 05B0     		add	sp, sp, #20
 1340              	.LCFI20:
 1341              		.cfi_remember_state
 1342              		.cfi_def_cfa_offset 36
 1343              		@ sp needed
 1344 001e BDE8F08F 		pop	{r4, r5, r6, r7, r8, r9, r10, fp, pc}
 1345              	.LVL131:
ARM GAS  C:\Users\User\AppData\Local\Temp\cciKCUxe.s 			page 61


 1346              	.L54:
 1347              	.LCFI21:
 1348              		.cfi_restore_state
 1349              	.LBB49:
 1350              	.LBB42:
 1351              	.LBB43:
 629:Core/Src/main.c ****             int global_y = chunk_y + local_y;
 1352              		.loc 1 629 13 is_stmt 1 view .LVU357
 634:Core/Src/main.c ****                 pixel_checksum = calculate_single_pixel_mandelbrot_fixed(
 1353              		.loc 1 634 16 is_stmt 0 view .LVU358
 1354 0022 119B     		ldr	r3, [sp, #68]
 1355 0024 0E4A     		ldr	r2, .L57
 1356 0026 9342     		cmp	r3, r2
 635:Core/Src/main.c ****                     global_x, global_y, full_width, full_height, max_iter);
 1357              		.loc 1 635 34 view .LVU359
 1358 0028 109B     		ldr	r3, [sp, #64]
 1359 002a 0093     		str	r3, [sp]
 629:Core/Src/main.c ****             int global_y = chunk_y + local_y;
 1360              		.loc 1 629 17 view .LVU360
 1361 002c 0BEB0600 		add	r0, fp, r6
 1362              	.LVL132:
 630:Core/Src/main.c ****             
 1363              		.loc 1 630 13 is_stmt 1 view .LVU361
 633:Core/Src/main.c ****             if (mandelbrot_func == calculate_mandelbrot_fixed_point_arithmetic) {
 1364              		.loc 1 633 13 view .LVU362
 634:Core/Src/main.c ****                 pixel_checksum = calculate_single_pixel_mandelbrot_fixed(
 1365              		.loc 1 634 13 view .LVU363
 635:Core/Src/main.c ****                     global_x, global_y, full_width, full_height, max_iter);
 1366              		.loc 1 635 34 is_stmt 0 view .LVU364
 1367 0030 DDE90E23 		ldrd	r2, r3, [sp, #56]
 1368 0034 5146     		mov	r1, r10
 634:Core/Src/main.c ****                 pixel_checksum = calculate_single_pixel_mandelbrot_fixed(
 1369              		.loc 1 634 16 view .LVU365
 1370 0036 0AD1     		bne	.L52
 1371              	.LVL133:
 635:Core/Src/main.c ****                     global_x, global_y, full_width, full_height, max_iter);
 1372              		.loc 1 635 17 is_stmt 1 view .LVU366
 635:Core/Src/main.c ****                     global_x, global_y, full_width, full_height, max_iter);
 1373              		.loc 1 635 34 is_stmt 0 view .LVU367
 1374 0038 FFF7FEFF 		bl	calculate_single_pixel_mandelbrot_fixed
 1375              	.LVL134:
 1376              	.L53:
 642:Core/Src/main.c ****         }
 1377              		.loc 1 642 13 is_stmt 1 view .LVU368
 642:Core/Src/main.c ****         }
 1378              		.loc 1 642 28 is_stmt 0 view .LVU369
 1379 003c 2818     		adds	r0, r5, r0
 1380              	.LVL135:
 642:Core/Src/main.c ****         }
 1381              		.loc 1 642 28 view .LVU370
 1382 003e 0546     		mov	r5, r0
 1383              	.LVL136:
 642:Core/Src/main.c ****         }
 1384              		.loc 1 642 28 view .LVU371
 1385 0040 41EB0808 		adc	r8, r1, r8
 1386              	.LVL137:
 642:Core/Src/main.c ****         }
ARM GAS  C:\Users\User\AppData\Local\Temp\cciKCUxe.s 			page 62


 1387              		.loc 1 642 28 view .LVU372
 1388              	.LBE43:
 626:Core/Src/main.c ****             
 1389              		.loc 1 626 61 is_stmt 1 discriminator 2 view .LVU373
 1390 0044 0136     		adds	r6, r6, #1
 1391              	.LVL138:
 1392              	.L55:
 626:Core/Src/main.c ****             
 1393              		.loc 1 626 39 discriminator 1 view .LVU374
 1394 0046 4E45     		cmp	r6, r9
 1395 0048 EBDB     		blt	.L54
 1396              	.LBE42:
 625:Core/Src/main.c ****         for (int local_x = 0; local_x < chunk_width; local_x++) {
 1397              		.loc 1 625 58 discriminator 2 view .LVU375
 1398 004a 0134     		adds	r4, r4, #1
 1399              	.LVL139:
 625:Core/Src/main.c ****         for (int local_x = 0; local_x < chunk_width; local_x++) {
 1400              		.loc 1 625 58 is_stmt 0 discriminator 2 view .LVU376
 1401 004c E2E7     		b	.L51
 1402              	.LVL140:
 1403              	.L52:
 1404              	.LBB46:
 1405              	.LBB44:
 638:Core/Src/main.c ****                     global_x, global_y, full_width, full_height, max_iter);
 1406              		.loc 1 638 17 is_stmt 1 view .LVU377
 638:Core/Src/main.c ****                     global_x, global_y, full_width, full_height, max_iter);
 1407              		.loc 1 638 34 is_stmt 0 view .LVU378
 1408 004e FFF7FEFF 		bl	calculate_single_pixel_mandelbrot_double
 1409              	.LVL141:
 638:Core/Src/main.c ****                     global_x, global_y, full_width, full_height, max_iter);
 1410              		.loc 1 638 34 view .LVU379
 1411 0052 F3E7     		b	.L53
 1412              	.LVL142:
 1413              	.L56:
 630:Core/Src/main.c ****             
 1414              		.loc 1 630 17 view .LVU380
 1415 0054 039B     		ldr	r3, [sp, #12]
 1416              	.LBE44:
 626:Core/Src/main.c ****             
 1417              		.loc 1 626 18 view .LVU381
 1418 0056 0026     		movs	r6, #0
 1419              	.LBB45:
 630:Core/Src/main.c ****             
 1420              		.loc 1 630 17 view .LVU382
 1421 0058 03EB040A 		add	r10, r3, r4
 1422 005c F3E7     		b	.L55
 1423              	.L58:
 1424 005e 00BF     		.align	2
 1425              	.L57:
 1426 0060 00000000 		.word	calculate_mandelbrot_fixed_point_arithmetic
 1427              	.LBE45:
 1428              	.LBE46:
 1429              	.LBE49:
 1430              		.cfi_endproc
 1431              	.LFE143:
 1433              		.section	.text.process_image_in_chunks,"ax",%progbits
 1434              		.align	1
ARM GAS  C:\Users\User\AppData\Local\Temp\cciKCUxe.s 			page 63


 1435              		.global	process_image_in_chunks
 1436              		.syntax unified
 1437              		.thumb
 1438              		.thumb_func
 1440              	process_image_in_chunks:
 1441              	.LVL143:
 1442              	.LFB144:
 653:Core/Src/main.c ****     
 1443              		.loc 1 653 74 is_stmt 1 view -0
 1444              		.cfi_startproc
 1445              		@ args = 16, pretend = 0, frame = 32
 1446              		@ frame_needed = 0, uses_anonymous_args = 0
 655:Core/Src/main.c ****     uint32_t dwt_start_cycles = DWT->CYCCNT;
 1447              		.loc 1 655 5 view .LVU384
 653:Core/Src/main.c ****     
 1448              		.loc 1 653 74 is_stmt 0 view .LVU385
 1449 0000 2DE9F04F 		push	{r4, r5, r6, r7, r8, r9, r10, fp, lr}
 1450              	.LCFI22:
 1451              		.cfi_def_cfa_offset 36
 1452              		.cfi_offset 4, -36
 1453              		.cfi_offset 5, -32
 1454              		.cfi_offset 6, -28
 1455              		.cfi_offset 7, -24
 1456              		.cfi_offset 8, -20
 1457              		.cfi_offset 9, -16
 1458              		.cfi_offset 10, -12
 1459              		.cfi_offset 11, -8
 1460              		.cfi_offset 14, -4
 1461 0004 8DB0     		sub	sp, sp, #52
 1462              	.LCFI23:
 1463              		.cfi_def_cfa_offset 88
 653:Core/Src/main.c ****     
 1464              		.loc 1 653 74 view .LVU386
 1465 0006 CDE90A23 		strd	r2, r3, [sp, #40]
 1466 000a 0446     		mov	r4, r0
 1467 000c 0D46     		mov	r5, r1
 655:Core/Src/main.c ****     uint32_t dwt_start_cycles = DWT->CYCCNT;
 1468              		.loc 1 655 27 view .LVU387
 1469 000e FFF7FEFF 		bl	HAL_GetTick
 1470              	.LVL144:
 656:Core/Src/main.c ****     uint64_t cumulative_checksum = 0;
 1471              		.loc 1 656 14 view .LVU388
 1472 0012 3E4B     		ldr	r3, .L69
 655:Core/Src/main.c ****     uint32_t dwt_start_cycles = DWT->CYCCNT;
 1473              		.loc 1 655 27 view .LVU389
 1474 0014 0690     		str	r0, [sp, #24]
 1475              	.LVL145:
 656:Core/Src/main.c ****     uint64_t cumulative_checksum = 0;
 1476              		.loc 1 656 5 is_stmt 1 view .LVU390
 656:Core/Src/main.c ****     uint64_t cumulative_checksum = 0;
 1477              		.loc 1 656 14 is_stmt 0 view .LVU391
 1478 0016 5B68     		ldr	r3, [r3, #4]
 1479 0018 0793     		str	r3, [sp, #28]
 1480              	.LVL146:
 657:Core/Src/main.c ****     reset_chunk_counters();
 1481              		.loc 1 657 5 is_stmt 1 view .LVU392
 658:Core/Src/main.c ****     
ARM GAS  C:\Users\User\AppData\Local\Temp\cciKCUxe.s 			page 64


 1482              		.loc 1 658 5 view .LVU393
 1483 001a FFF7FEFF 		bl	reset_chunk_counters
 1484              	.LVL147:
 661:Core/Src/main.c ****     int chunks_y = (full_height + MAX_CHUNK_SIZE - 1) / MAX_CHUNK_SIZE;
 1485              		.loc 1 661 5 view .LVU394
 661:Core/Src/main.c ****     int chunks_y = (full_height + MAX_CHUNK_SIZE - 1) / MAX_CHUNK_SIZE;
 1486              		.loc 1 661 9 is_stmt 0 view .LVU395
 1487 001e 14F17F03 		adds	r3, r4, #127
 1488 0022 48BF     		it	mi
 1489 0024 04F1FE03 		addmi	r3, r4, #254
 1490 0028 DB11     		asrs	r3, r3, #7
 1491 002a 0893     		str	r3, [sp, #32]
 1492              	.LVL148:
 662:Core/Src/main.c ****     
 1493              		.loc 1 662 5 is_stmt 1 view .LVU396
 662:Core/Src/main.c ****     
 1494              		.loc 1 662 9 is_stmt 0 view .LVU397
 1495 002c 15F17F03 		adds	r3, r5, #127
 1496              	.LVL149:
 662:Core/Src/main.c ****     
 1497              		.loc 1 662 9 view .LVU398
 1498 0030 48BF     		it	mi
 1499 0032 05F1FE03 		addmi	r3, r5, #254
 1500              	.LBB50:
 665:Core/Src/main.c ****         for (int chunk_x = 0; chunk_x < chunks_x; chunk_x++) {
 1501              		.loc 1 665 14 view .LVU399
 1502 0036 0026     		movs	r6, #0
 1503              	.LBE50:
 662:Core/Src/main.c ****     
 1504              		.loc 1 662 9 view .LVU400
 1505 0038 DB11     		asrs	r3, r3, #7
 1506              	.LBB55:
 1507              	.LBB51:
 1508              	.LBB52:
 683:Core/Src/main.c ****             
 1509              		.loc 1 683 35 view .LVU401
 1510 003a DFF8DCB0 		ldr	fp, .L69+12
 1511              	.LBE52:
 1512              	.LBE51:
 1513              	.LBE55:
 662:Core/Src/main.c ****     
 1514              		.loc 1 662 9 view .LVU402
 1515 003e 0993     		str	r3, [sp, #36]
 1516              	.LVL150:
 665:Core/Src/main.c ****         for (int chunk_x = 0; chunk_x < chunks_x; chunk_x++) {
 1517              		.loc 1 665 5 is_stmt 1 view .LVU403
 1518              	.LBB56:
 665:Core/Src/main.c ****         for (int chunk_x = 0; chunk_x < chunks_x; chunk_x++) {
 1519              		.loc 1 665 10 view .LVU404
 665:Core/Src/main.c ****         for (int chunk_x = 0; chunk_x < chunks_x; chunk_x++) {
 1520              		.loc 1 665 10 is_stmt 0 view .LVU405
 1521              	.LBE56:
 657:Core/Src/main.c ****     reset_chunk_counters();
 1522              		.loc 1 657 14 view .LVU406
 1523 0040 3746     		mov	r7, r6
 1524 0042 B146     		mov	r9, r6
 1525              	.LVL151:
ARM GAS  C:\Users\User\AppData\Local\Temp\cciKCUxe.s 			page 65


 1526              	.L62:
 1527              	.LBB57:
 665:Core/Src/main.c ****         for (int chunk_x = 0; chunk_x < chunks_x; chunk_x++) {
 1528              		.loc 1 665 35 is_stmt 1 discriminator 1 view .LVU407
 1529 0044 099B     		ldr	r3, [sp, #36]
 1530 0046 9E42     		cmp	r6, r3
 1531 0048 3ADA     		bge	.L66
 1532 004a 4FEAC61A 		lsl	r10, r6, #7
 1533 004e A5EBC613 		sub	r3, r5, r6, lsl #7
 1534 0052 0AF17F02 		add	r2, r10, #127
 1535 0056 9542     		cmp	r5, r2
 1536 0058 C8BF     		it	gt
 1537 005a 8023     		movgt	r3, #128
 1538 005c 0593     		str	r3, [sp, #20]
 1539              	.LBB54:
 666:Core/Src/main.c ****             
 1540              		.loc 1 666 18 is_stmt 0 view .LVU408
 1541 005e 4FF00008 		mov	r8, #0
 1542 0062 28E0     		b	.L67
 1543              	.LVL152:
 1544              	.L65:
 1545              	.LBB53:
 669:Core/Src/main.c ****             int chunk_start_y = chunk_y * MAX_CHUNK_SIZE;
 1546              		.loc 1 669 13 is_stmt 1 view .LVU409
 1547 0064 4FEAC810 		lsl	r0, r8, #7
 1548              	.LVL153:
 670:Core/Src/main.c ****             int chunk_width = (chunk_start_x + MAX_CHUNK_SIZE > full_width) ? 
 1549              		.loc 1 670 13 view .LVU410
 671:Core/Src/main.c ****                              (full_width - chunk_start_x) : MAX_CHUNK_SIZE;
 1550              		.loc 1 671 13 view .LVU411
 672:Core/Src/main.c ****             int chunk_height = (chunk_start_y + MAX_CHUNK_SIZE > full_height) ? 
 1551              		.loc 1 672 59 is_stmt 0 view .LVU412
 1552 0068 00F17F03 		add	r3, r0, #127
 1553 006c 9C42     		cmp	r4, r3
 677:Core/Src/main.c ****                 chunk_start_x, chunk_start_y, chunk_width, chunk_height,
 1554              		.loc 1 677 39 view .LVU413
 1555 006e 0B9B     		ldr	r3, [sp, #44]
 1556 0070 0393     		str	r3, [sp, #12]
 1557 0072 0A9B     		ldr	r3, [sp, #40]
 1558 0074 0094     		str	r4, [sp]
 672:Core/Src/main.c ****             int chunk_height = (chunk_start_y + MAX_CHUNK_SIZE > full_height) ? 
 1559              		.loc 1 672 59 discriminator 1 view .LVU414
 1560 0076 D4BF     		ite	le
 1561 0078 221A     		suble	r2, r4, r0
 672:Core/Src/main.c ****             int chunk_height = (chunk_start_y + MAX_CHUNK_SIZE > full_height) ? 
 1562              		.loc 1 672 59 discriminator 2 view .LVU415
 1563 007a 8022     		movgt	r2, #128
 1564              	.LVL154:
 673:Core/Src/main.c ****                               (full_height - chunk_start_y) : MAX_CHUNK_SIZE;
 1565              		.loc 1 673 13 is_stmt 1 view .LVU416
 677:Core/Src/main.c ****                 chunk_start_x, chunk_start_y, chunk_width, chunk_height,
 1566              		.loc 1 677 13 view .LVU417
 677:Core/Src/main.c ****                 chunk_start_x, chunk_start_y, chunk_width, chunk_height,
 1567              		.loc 1 677 39 is_stmt 0 view .LVU418
 1568 007c CDE90153 		strd	r5, r3, [sp, #4]
 1569 0080 5146     		mov	r1, r10
 1570 0082 059B     		ldr	r3, [sp, #20]
ARM GAS  C:\Users\User\AppData\Local\Temp\cciKCUxe.s 			page 66


 1571 0084 FFF7FEFF 		bl	calculate_mandelbrot_chunk
 1572              	.LVL155:
 682:Core/Src/main.c ****             total_chunks_processed++;
 1573              		.loc 1 682 13 is_stmt 1 view .LVU419
 683:Core/Src/main.c ****             
 1574              		.loc 1 683 35 is_stmt 0 view .LVU420
 1575 0088 DBF80030 		ldr	r3, [fp]
 682:Core/Src/main.c ****             total_chunks_processed++;
 1576              		.loc 1 682 33 view .LVU421
 1577 008c 3818     		adds	r0, r7, r0
 1578              	.LVL156:
 683:Core/Src/main.c ****             
 1579              		.loc 1 683 35 view .LVU422
 1580 008e 03F10103 		add	r3, r3, #1
 1581 0092 4FF01402 		mov	r2, #20
 682:Core/Src/main.c ****             total_chunks_processed++;
 1582              		.loc 1 682 33 view .LVU423
 1583 0096 49EB0109 		adc	r9, r9, r1
 1584              	.LVL157:
 683:Core/Src/main.c ****             
 1585              		.loc 1 683 13 is_stmt 1 view .LVU424
 683:Core/Src/main.c ****             
 1586              		.loc 1 683 35 is_stmt 0 view .LVU425
 1587 009a CBF80030 		str	r3, [fp]
 686:Core/Src/main.c ****                 HAL_GPIO_TogglePin(GPIOB, GPIO_PIN_0); // Blink LED every 20 chunks
 1588              		.loc 1 686 13 is_stmt 1 view .LVU426
 683:Core/Src/main.c ****             
 1589              		.loc 1 683 35 is_stmt 0 view .LVU427
 1590 009e B3FBF2F1 		udiv	r1, r3, r2
 1591 00a2 02FB1133 		mls	r3, r2, r1, r3
 682:Core/Src/main.c ****             total_chunks_processed++;
 1592              		.loc 1 682 33 view .LVU428
 1593 00a6 0746     		mov	r7, r0
 686:Core/Src/main.c ****                 HAL_GPIO_TogglePin(GPIOB, GPIO_PIN_0); // Blink LED every 20 chunks
 1594              		.loc 1 686 16 view .LVU429
 1595 00a8 1BB9     		cbnz	r3, .L64
 687:Core/Src/main.c ****             }
 1596              		.loc 1 687 17 is_stmt 1 view .LVU430
 1597 00aa 1948     		ldr	r0, .L69+4
 1598              	.LVL158:
 687:Core/Src/main.c ****             }
 1599              		.loc 1 687 17 is_stmt 0 view .LVU431
 1600 00ac 0121     		movs	r1, #1
 1601 00ae FFF7FEFF 		bl	HAL_GPIO_TogglePin
 1602              	.LVL159:
 1603              	.L64:
 687:Core/Src/main.c ****             }
 1604              		.loc 1 687 17 view .LVU432
 1605              	.LBE53:
 666:Core/Src/main.c ****             
 1606              		.loc 1 666 58 is_stmt 1 discriminator 2 view .LVU433
 1607 00b2 08F10108 		add	r8, r8, #1
 1608              	.LVL160:
 1609              	.L67:
 666:Core/Src/main.c ****             
 1610              		.loc 1 666 39 discriminator 1 view .LVU434
 1611 00b6 089B     		ldr	r3, [sp, #32]
ARM GAS  C:\Users\User\AppData\Local\Temp\cciKCUxe.s 			page 67


 1612 00b8 9845     		cmp	r8, r3
 1613 00ba D3DB     		blt	.L65
 1614              	.LBE54:
 665:Core/Src/main.c ****         for (int chunk_x = 0; chunk_x < chunks_x; chunk_x++) {
 1615              		.loc 1 665 54 discriminator 2 view .LVU435
 1616 00bc 0136     		adds	r6, r6, #1
 1617              	.LVL161:
 665:Core/Src/main.c ****         for (int chunk_x = 0; chunk_x < chunks_x; chunk_x++) {
 1618              		.loc 1 665 54 is_stmt 0 discriminator 2 view .LVU436
 1619 00be C1E7     		b	.L62
 1620              	.LVL162:
 1621              	.L66:
 665:Core/Src/main.c ****         for (int chunk_x = 0; chunk_x < chunks_x; chunk_x++) {
 1622              		.loc 1 665 54 discriminator 2 view .LVU437
 1623              	.LBE57:
 692:Core/Src/main.c ****     uint32_t dwt_end_cycles = DWT->CYCCNT;
 1624              		.loc 1 692 5 is_stmt 1 view .LVU438
 692:Core/Src/main.c ****     uint32_t dwt_end_cycles = DWT->CYCCNT;
 1625              		.loc 1 692 25 is_stmt 0 view .LVU439
 1626 00c0 FFF7FEFF 		bl	HAL_GetTick
 1627              	.LVL163:
 693:Core/Src/main.c ****     
 1628              		.loc 1 693 5 is_stmt 1 view .LVU440
 696:Core/Src/main.c ****     *cpu_cycles = dwt_end_cycles - dwt_start_cycles;
 1629              		.loc 1 696 28 is_stmt 0 view .LVU441
 1630 00c4 069A     		ldr	r2, [sp, #24]
 693:Core/Src/main.c ****     
 1631              		.loc 1 693 14 view .LVU442
 1632 00c6 114B     		ldr	r3, .L69
 699:Core/Src/main.c **** }
 1633              		.loc 1 699 68 view .LVU443
 1634 00c8 9FED126A 		vldr.32	s12, .L69+8
 693:Core/Src/main.c ****     
 1635              		.loc 1 693 14 view .LVU444
 1636 00cc 5B68     		ldr	r3, [r3, #4]
 1637              	.LVL164:
 696:Core/Src/main.c ****     *cpu_cycles = dwt_end_cycles - dwt_start_cycles;
 1638              		.loc 1 696 5 is_stmt 1 view .LVU445
 696:Core/Src/main.c ****     *cpu_cycles = dwt_end_cycles - dwt_start_cycles;
 1639              		.loc 1 696 28 is_stmt 0 view .LVU446
 1640 00ce 801A     		subs	r0, r0, r2
 1641              	.LVL165:
 696:Core/Src/main.c ****     *cpu_cycles = dwt_end_cycles - dwt_start_cycles;
 1642              		.loc 1 696 17 view .LVU447
 1643 00d0 169A     		ldr	r2, [sp, #88]
 1644 00d2 1060     		str	r0, [r2]
 697:Core/Src/main.c ****     *total_checksum = cumulative_checksum;
 1645              		.loc 1 697 5 is_stmt 1 view .LVU448
 697:Core/Src/main.c ****     *total_checksum = cumulative_checksum;
 1646              		.loc 1 697 34 is_stmt 0 view .LVU449
 1647 00d4 079A     		ldr	r2, [sp, #28]
 1648 00d6 9B1A     		subs	r3, r3, r2
 1649              	.LVL166:
 697:Core/Src/main.c ****     *total_checksum = cumulative_checksum;
 1650              		.loc 1 697 17 view .LVU450
 1651 00d8 179A     		ldr	r2, [sp, #92]
 1652 00da 1360     		str	r3, [r2]
ARM GAS  C:\Users\User\AppData\Local\Temp\cciKCUxe.s 			page 68


 698:Core/Src/main.c ****     *throughput = (float)(full_width * full_height) / (*wall_clock / 1000.0f);
 1653              		.loc 1 698 5 is_stmt 1 view .LVU451
 698:Core/Src/main.c ****     *throughput = (float)(full_width * full_height) / (*wall_clock / 1000.0f);
 1654              		.loc 1 698 21 is_stmt 0 view .LVU452
 1655 00dc 199B     		ldr	r3, [sp, #100]
 1656 00de C3E90079 		strd	r7, r9, [r3]
 699:Core/Src/main.c **** }
 1657              		.loc 1 699 5 is_stmt 1 view .LVU453
 699:Core/Src/main.c **** }
 1658              		.loc 1 699 68 is_stmt 0 view .LVU454
 1659 00e2 169B     		ldr	r3, [sp, #88]
 1660 00e4 93ED007A 		vldr.32	s14, [r3]	@ int
 699:Core/Src/main.c **** }
 1661              		.loc 1 699 17 view .LVU455
 1662 00e8 189B     		ldr	r3, [sp, #96]
 699:Core/Src/main.c **** }
 1663              		.loc 1 699 68 view .LVU456
 1664 00ea B8EE477A 		vcvt.f32.u32	s14, s14
 699:Core/Src/main.c **** }
 1665              		.loc 1 699 38 view .LVU457
 1666 00ee 6C43     		muls	r4, r5, r4
 1667              	.LVL167:
 699:Core/Src/main.c **** }
 1668              		.loc 1 699 68 view .LVU458
 1669 00f0 C7EE066A 		vdiv.f32	s13, s14, s12
 699:Core/Src/main.c **** }
 1670              		.loc 1 699 19 view .LVU459
 1671 00f4 07EE904A 		vmov	s15, r4	@ int
 1672 00f8 F8EEE77A 		vcvt.f32.s32	s15, s15
 699:Core/Src/main.c **** }
 1673              		.loc 1 699 53 view .LVU460
 1674 00fc 87EEA67A 		vdiv.f32	s14, s15, s13
 699:Core/Src/main.c **** }
 1675              		.loc 1 699 17 view .LVU461
 1676 0100 83ED007A 		vstr.32	s14, [r3]
 700:Core/Src/main.c **** 
 1677              		.loc 1 700 1 view .LVU462
 1678 0104 0DB0     		add	sp, sp, #52
 1679              	.LCFI24:
 1680              		.cfi_def_cfa_offset 36
 1681              		@ sp needed
 1682 0106 BDE8F08F 		pop	{r4, r5, r6, r7, r8, r9, r10, fp, pc}
 1683              	.LVL168:
 1684              	.L70:
 700:Core/Src/main.c **** 
 1685              		.loc 1 700 1 view .LVU463
 1686 010a 00BF     		.align	2
 1687              	.L69:
 1688 010c 001000E0 		.word	-536866816
 1689 0110 00040240 		.word	1073873920
 1690 0114 00007A44 		.word	1148846080
 1691 0118 00000000 		.word	total_chunks_processed
 1692              		.cfi_endproc
 1693              	.LFE144:
 1695              		.section	.text.calculate_mandelbrot_fixed_point_with_scale,"ax",%progbits
 1696              		.align	1
 1697              		.global	calculate_mandelbrot_fixed_point_with_scale
ARM GAS  C:\Users\User\AppData\Local\Temp\cciKCUxe.s 			page 69


 1698              		.syntax unified
 1699              		.thumb
 1700              		.thumb_func
 1702              	calculate_mandelbrot_fixed_point_with_scale:
 1703              	.LVL169:
 1704              	.LFB145:
 705:Core/Src/main.c ****     uint64_t mandelbrot_sum = 0;
 1705              		.loc 1 705 139 is_stmt 1 view -0
 1706              		.cfi_startproc
 1707              		@ args = 12, pretend = 0, frame = 112
 1708              		@ frame_needed = 0, uses_anonymous_args = 0
 706:Core/Src/main.c ****     *overflow_count = 0;
 1709              		.loc 1 706 5 view .LVU465
 707:Core/Src/main.c ****     
 1710              		.loc 1 707 5 view .LVU466
 705:Core/Src/main.c ****     uint64_t mandelbrot_sum = 0;
 1711              		.loc 1 705 139 is_stmt 0 view .LVU467
 1712 0000 2DE9F04F 		push	{r4, r5, r6, r7, r8, r9, r10, fp, lr}
 1713              	.LCFI25:
 1714              		.cfi_def_cfa_offset 36
 1715              		.cfi_offset 4, -36
 1716              		.cfi_offset 5, -32
 1717              		.cfi_offset 6, -28
 1718              		.cfi_offset 7, -24
 1719              		.cfi_offset 8, -20
 1720              		.cfi_offset 9, -16
 1721              		.cfi_offset 10, -12
 1722              		.cfi_offset 11, -8
 1723              		.cfi_offset 14, -4
 1724 0004 9DB0     		sub	sp, sp, #116
 1725              	.LCFI26:
 1726              		.cfi_def_cfa_offset 152
 705:Core/Src/main.c ****     uint64_t mandelbrot_sum = 0;
 1727              		.loc 1 705 139 view .LVU468
 1728 0006 DDE92658 		ldrd	r5, r8, [sp, #152]
 707:Core/Src/main.c ****     
 1729              		.loc 1 707 21 view .LVU469
 1730 000a 289B     		ldr	r3, [sp, #160]
 705:Core/Src/main.c ****     uint64_t mandelbrot_sum = 0;
 1731              		.loc 1 705 139 view .LVU470
 1732 000c 1192     		str	r2, [sp, #68]
 1733 000e CDE90501 		strd	r0, r1, [sp, #20]
 707:Core/Src/main.c ****     
 1734              		.loc 1 707 21 view .LVU471
 1735 0012 0020     		movs	r0, #0
 1736              	.LVL170:
 707:Core/Src/main.c ****     
 1737              		.loc 1 707 21 view .LVU472
 1738 0014 1860     		str	r0, [r3]
 710:Core/Src/main.c ****     int64_t scaled_2_0 = 2 * scale_factor;                            // 2.0 * SCALE
 1739              		.loc 1 710 5 is_stmt 1 view .LVU473
 710:Core/Src/main.c ****     int64_t scaled_2_0 = 2 * scale_factor;                            // 2.0 * SCALE
 1740              		.loc 1 710 28 is_stmt 0 view .LVU474
 1741 0016 6B19     		adds	r3, r5, r5
 1742 0018 48EB0802 		adc	r2, r8, r8
 1743              	.LVL171:
 710:Core/Src/main.c ****     int64_t scaled_2_0 = 2 * scale_factor;                            // 2.0 * SCALE
ARM GAS  C:\Users\User\AppData\Local\Temp\cciKCUxe.s 			page 70


 1744              		.loc 1 710 28 view .LVU475
 1745 001c 1093     		str	r3, [sp, #64]
 1746 001e 5919     		adds	r1, r3, r5
 1747              	.LVL172:
 710:Core/Src/main.c ****     int64_t scaled_2_0 = 2 * scale_factor;                            // 2.0 * SCALE
 1748              		.loc 1 710 64 view .LVU476
 1749 0020 4FEAD873 		lsr	r3, r8, #31
 710:Core/Src/main.c ****     int64_t scaled_2_0 = 2 * scale_factor;                            // 2.0 * SCALE
 1750              		.loc 1 710 28 view .LVU477
 1751 0024 48EB0202 		adc	r2, r8, r2
 710:Core/Src/main.c ****     int64_t scaled_2_0 = 2 * scale_factor;                            // 2.0 * SCALE
 1752              		.loc 1 710 64 view .LVU478
 1753 0028 5B19     		adds	r3, r3, r5
 1754 002a 48F10004 		adc	r4, r8, #0
 1755 002e 5B08     		lsrs	r3, r3, #1
 1756 0030 43EAC473 		orr	r3, r3, r4, lsl #31
 710:Core/Src/main.c ****     int64_t scaled_2_0 = 2 * scale_factor;                            // 2.0 * SCALE
 1757              		.loc 1 710 13 view .LVU479
 1758 0034 CB18     		adds	r3, r1, r3
 1759 0036 0E93     		str	r3, [sp, #56]
 1760 0038 42EB6403 		adc	r3, r2, r4, asr #1
 1761 003c 0F93     		str	r3, [sp, #60]
 1762              	.LVL173:
 711:Core/Src/main.c ****     int64_t scaled_2_5 = 2 * scale_factor + (5 * scale_factor) / 10;  // 2.5 * SCALE
 1763              		.loc 1 711 5 is_stmt 1 view .LVU480
 712:Core/Src/main.c ****     int64_t scaled_1_0 = scale_factor;                                 // 1.0 * SCALE
 1764              		.loc 1 712 5 view .LVU481
 712:Core/Src/main.c ****     int64_t scaled_1_0 = scale_factor;                                 // 1.0 * SCALE
 1765              		.loc 1 712 13 is_stmt 0 view .LVU482
 1766 003e 0E9B     		ldr	r3, [sp, #56]
 1767              	.LVL174:
 1768              	.LBB58:
 718:Core/Src/main.c ****         for (int x = 0; x < width; x++) {
 1769              		.loc 1 718 5 view .LVU483
 1770 0040 0990     		str	r0, [sp, #36]
 1771              	.LBE58:
 712:Core/Src/main.c ****     int64_t scaled_1_0 = scale_factor;                                 // 1.0 * SCALE
 1772              		.loc 1 712 13 view .LVU484
 1773 0042 5B1B     		subs	r3, r3, r5
 1774 0044 1293     		str	r3, [sp, #72]
 1775 0046 0F9B     		ldr	r3, [sp, #60]
 1776              	.LBB71:
 718:Core/Src/main.c ****         for (int x = 0; x < width; x++) {
 1777              		.loc 1 718 14 view .LVU485
 1778 0048 0390     		str	r0, [sp, #12]
 1779              	.LBE71:
 712:Core/Src/main.c ****     int64_t scaled_1_0 = scale_factor;                                 // 1.0 * SCALE
 1780              		.loc 1 712 13 view .LVU486
 1781 004a 63EB0803 		sbc	r3, r3, r8
 1782 004e 1393     		str	r3, [sp, #76]
 1783              	.LVL175:
 713:Core/Src/main.c ****     int64_t scaled_4 = 4 * scale_factor;                              // 4 * SCALE
 1784              		.loc 1 713 5 is_stmt 1 view .LVU487
 714:Core/Src/main.c ****     int64_t scaled_2 = 2 * scale_factor;                              // 2 * SCALE
 1785              		.loc 1 714 5 view .LVU488
 714:Core/Src/main.c ****     int64_t scaled_2 = 2 * scale_factor;                              // 2 * SCALE
 1786              		.loc 1 714 13 is_stmt 0 view .LVU489
ARM GAS  C:\Users\User\AppData\Local\Temp\cciKCUxe.s 			page 71


 1787 0050 4FEA8803 		lsl	r3, r8, #2
 1788              	.LVL176:
 714:Core/Src/main.c ****     int64_t scaled_2 = 2 * scale_factor;                              // 2 * SCALE
 1789              		.loc 1 714 13 view .LVU490
 1790 0054 43EA9573 		orr	r3, r3, r5, lsr #30
 1791 0058 0793     		str	r3, [sp, #28]
 1792 005a AB00     		lsls	r3, r5, #2
 1793 005c 1493     		str	r3, [sp, #80]
 1794              	.LVL177:
 715:Core/Src/main.c ****     
 1795              		.loc 1 715 5 is_stmt 1 view .LVU491
 718:Core/Src/main.c ****         for (int x = 0; x < width; x++) {
 1796              		.loc 1 718 5 view .LVU492
 1797              	.LBB72:
 718:Core/Src/main.c ****         for (int x = 0; x < width; x++) {
 1798              		.loc 1 718 10 view .LVU493
 718:Core/Src/main.c ****         for (int x = 0; x < width; x++) {
 1799              		.loc 1 718 10 is_stmt 0 view .LVU494
 1800 005e 6B19     		adds	r3, r5, r5
 1801              	.LVL178:
 718:Core/Src/main.c ****         for (int x = 0; x < width; x++) {
 1802              		.loc 1 718 10 view .LVU495
 1803 0060 48EB0803 		adc	r3, r8, r8
 1804 0064 1993     		str	r3, [sp, #100]
 1805              	.LBB59:
 1806              	.LBB60:
 721:Core/Src/main.c ****             
 1807              		.loc 1 721 44 view .LVU496
 1808 0066 059B     		ldr	r3, [sp, #20]
 1809 0068 DB17     		asrs	r3, r3, #31
 1810 006a 1A93     		str	r3, [sp, #104]
 724:Core/Src/main.c ****             
 1811              		.loc 1 724 44 view .LVU497
 1812 006c 069B     		ldr	r3, [sp, #24]
 1813              	.LBE60:
 1814              	.LBE59:
 1815              	.LBE72:
 706:Core/Src/main.c ****     *overflow_count = 0;
 1816              		.loc 1 706 14 view .LVU498
 1817 006e CDE90A00 		strd	r0, r0, [sp, #40]
 1818              	.LBB73:
 1819              	.LBB67:
 1820              	.LBB63:
 724:Core/Src/main.c ****             
 1821              		.loc 1 724 44 view .LVU499
 1822 0072 DB17     		asrs	r3, r3, #31
 1823              	.LBE63:
 1824              	.LBE67:
 718:Core/Src/main.c ****         for (int x = 0; x < width; x++) {
 1825              		.loc 1 718 5 view .LVU500
 1826 0074 8346     		mov	fp, r0
 1827              	.LBB68:
 1828              	.LBB64:
 724:Core/Src/main.c ****             
 1829              		.loc 1 724 44 view .LVU501
 1830 0076 1B93     		str	r3, [sp, #108]
 1831              	.LVL179:
ARM GAS  C:\Users\User\AppData\Local\Temp\cciKCUxe.s 			page 72


 1832              	.L72:
 724:Core/Src/main.c ****             
 1833              		.loc 1 724 44 view .LVU502
 1834              	.LBE64:
 1835              	.LBE68:
 718:Core/Src/main.c ****         for (int x = 0; x < width; x++) {
 1836              		.loc 1 718 23 is_stmt 1 discriminator 1 view .LVU503
 1837 0078 039B     		ldr	r3, [sp, #12]
 1838 007a 069A     		ldr	r2, [sp, #24]
 1839 007c 9342     		cmp	r3, r2
 1840 007e 80F2C180 		bge	.L71
 1841 0082 0023     		movs	r3, #0
 1842 0084 0093     		str	r3, [sp]
 1843 0086 0893     		str	r3, [sp, #32]
 1844              	.LBB69:
 719:Core/Src/main.c ****             // Calculate x0 = (x / width) * 3.5 - 2.5
 1845              		.loc 1 719 18 is_stmt 0 view .LVU504
 1846 0088 0493     		str	r3, [sp, #16]
 1847 008a 69E0     		b	.L81
 1848              	.LVL180:
 1849              	.L79:
 1850              	.LBB65:
 721:Core/Src/main.c ****             
 1851              		.loc 1 721 13 is_stmt 1 view .LVU505
 721:Core/Src/main.c ****             
 1852              		.loc 1 721 44 is_stmt 0 view .LVU506
 1853 008c 059A     		ldr	r2, [sp, #20]
 1854 008e 1A9B     		ldr	r3, [sp, #104]
 1855              	.LVL181:
 721:Core/Src/main.c ****             
 1856              		.loc 1 721 44 view .LVU507
 1857 0090 0098     		ldr	r0, [sp]
 1858 0092 0899     		ldr	r1, [sp, #32]
 1859 0094 FFF7FEFF 		bl	__aeabi_ldivmod
 1860              	.LVL182:
 721:Core/Src/main.c ****             
 1861              		.loc 1 721 21 view .LVU508
 1862 0098 129B     		ldr	r3, [sp, #72]
 724:Core/Src/main.c ****             
 1863              		.loc 1 724 44 view .LVU509
 1864 009a 069A     		ldr	r2, [sp, #24]
 721:Core/Src/main.c ****             
 1865              		.loc 1 721 21 view .LVU510
 1866 009c C31A     		subs	r3, r0, r3
 1867 009e 1593     		str	r3, [sp, #84]
 1868 00a0 139B     		ldr	r3, [sp, #76]
 1869 00a2 61EB0303 		sbc	r3, r1, r3
 1870 00a6 1693     		str	r3, [sp, #88]
 1871              	.LVL183:
 724:Core/Src/main.c ****             
 1872              		.loc 1 724 13 is_stmt 1 view .LVU511
 724:Core/Src/main.c ****             
 1873              		.loc 1 724 44 is_stmt 0 view .LVU512
 1874 00a8 0999     		ldr	r1, [sp, #36]
 1875 00aa 1B9B     		ldr	r3, [sp, #108]
 1876              	.LVL184:
 724:Core/Src/main.c ****             
ARM GAS  C:\Users\User\AppData\Local\Temp\cciKCUxe.s 			page 73


 1877              		.loc 1 724 44 view .LVU513
 1878 00ac 5846     		mov	r0, fp
 1879 00ae FFF7FEFF 		bl	__aeabi_ldivmod
 1880              	.LVL185:
 724:Core/Src/main.c ****             
 1881              		.loc 1 724 21 view .LVU514
 1882 00b2 431B     		subs	r3, r0, r5
 729:Core/Src/main.c ****             
 1883              		.loc 1 729 17 view .LVU515
 1884 00b4 4FF00009 		mov	r9, #0
 724:Core/Src/main.c ****             
 1885              		.loc 1 724 21 view .LVU516
 1886 00b8 1793     		str	r3, [sp, #92]
 1887 00ba 61EB0803 		sbc	r3, r1, r8
 1888 00be 1893     		str	r3, [sp, #96]
 1889              	.LVL186:
 727:Core/Src/main.c ****             int64_t yi = 0;
 1890              		.loc 1 727 13 is_stmt 1 view .LVU517
 728:Core/Src/main.c ****             int iteration = 0;
 1891              		.loc 1 728 13 view .LVU518
 729:Core/Src/main.c ****             
 1892              		.loc 1 729 13 view .LVU519
 732:Core/Src/main.c ****                 // Check for potential overflow before calculations
 1893              		.loc 1 732 13 view .LVU520
 728:Core/Src/main.c ****             int iteration = 0;
 1894              		.loc 1 728 21 is_stmt 0 view .LVU521
 1895 00c0 4E46     		mov	r6, r9
 1896 00c2 4F46     		mov	r7, r9
 727:Core/Src/main.c ****             int64_t yi = 0;
 1897              		.loc 1 727 21 view .LVU522
 1898 00c4 4C46     		mov	r4, r9
 1899 00c6 CA46     		mov	r10, r9
 1900              	.LVL187:
 1901              	.L73:
 732:Core/Src/main.c ****                 // Check for potential overflow before calculations
 1902              		.loc 1 732 41 is_stmt 1 view .LVU523
 1903 00c8 119B     		ldr	r3, [sp, #68]
 1904 00ca 9945     		cmp	r9, r3
 1905 00cc 34DA     		bge	.L75
 732:Core/Src/main.c ****                 // Check for potential overflow before calculations
 1906              		.loc 1 732 49 is_stmt 0 discriminator 1 view .LVU524
 1907 00ce A4FB0412 		umull	r1, r2, r4, r4
 1908 00d2 0192     		str	r2, [sp, #4]
 1909 00d4 019A     		ldr	r2, [sp, #4]
 1910 00d6 0C91     		str	r1, [sp, #48]
 1911 00d8 04FB0AF3 		mul	r3, r4, r10
 1912 00dc 02EB4303 		add	r3, r2, r3, lsl #1
 732:Core/Src/main.c ****                 // Check for potential overflow before calculations
 1913              		.loc 1 732 59 discriminator 1 view .LVU525
 1914 00e0 A6FB0612 		umull	r1, r2, r6, r6
 1915 00e4 0292     		str	r2, [sp, #8]
 1916 00e6 029A     		ldr	r2, [sp, #8]
 732:Core/Src/main.c ****                 // Check for potential overflow before calculations
 1917              		.loc 1 732 49 discriminator 1 view .LVU526
 1918 00e8 0193     		str	r3, [sp, #4]
 732:Core/Src/main.c ****                 // Check for potential overflow before calculations
 1919              		.loc 1 732 59 discriminator 1 view .LVU527
ARM GAS  C:\Users\User\AppData\Local\Temp\cciKCUxe.s 			page 74


 1920 00ea 06FB07F3 		mul	r3, r6, r7
 1921 00ee 02EB4303 		add	r3, r2, r3, lsl #1
 1922 00f2 0293     		str	r3, [sp, #8]
 732:Core/Src/main.c ****                 // Check for potential overflow before calculations
 1923              		.loc 1 732 54 discriminator 1 view .LVU528
 1924 00f4 0C9B     		ldr	r3, [sp, #48]
 732:Core/Src/main.c ****                 // Check for potential overflow before calculations
 1925              		.loc 1 732 59 discriminator 1 view .LVU529
 1926 00f6 0D91     		str	r1, [sp, #52]
 732:Core/Src/main.c ****                 // Check for potential overflow before calculations
 1927              		.loc 1 732 54 discriminator 1 view .LVU530
 1928 00f8 5A18     		adds	r2, r3, r1
 1929 00fa DDE90131 		ldrd	r3, r1, [sp, #4]
 1930 00fe 43EB0103 		adc	r3, r3, r1
 732:Core/Src/main.c ****                 // Check for potential overflow before calculations
 1931              		.loc 1 732 41 discriminator 1 view .LVU531
 1932 0102 1499     		ldr	r1, [sp, #80]
 1933 0104 9142     		cmp	r1, r2
 1934 0106 079A     		ldr	r2, [sp, #28]
 1935 0108 72EB0303 		sbcs	r3, r2, r3
 1936 010c 14DB     		blt	.L75
 1937              	.LBB61:
 734:Core/Src/main.c ****                     (*overflow_count)++;
 1938              		.loc 1 734 17 is_stmt 1 view .LVU532
 734:Core/Src/main.c ****                     (*overflow_count)++;
 1939              		.loc 1 734 20 is_stmt 0 view .LVU533
 1940 010e 012C     		cmp	r4, #1
 1941 0110 7AF10003 		sbcs	r3, r10, #0
 1942 0114 35DB     		blt	.L74
 734:Core/Src/main.c ****                     (*overflow_count)++;
 1943              		.loc 1 734 47 discriminator 1 view .LVU534
 1944 0116 2A46     		mov	r2, r5
 1945 0118 4346     		mov	r3, r8
 1946 011a 4FF0FF30 		mov	r0, #-1
 1947 011e 6FF00041 		mvn	r1, #-2147483648
 1948 0122 FFF7FEFF 		bl	__aeabi_ldivmod
 1949              	.LVL188:
 734:Core/Src/main.c ****                     (*overflow_count)++;
 1950              		.loc 1 734 28 discriminator 1 view .LVU535
 1951 0126 A042     		cmp	r0, r4
 1952 0128 71EB0A01 		sbcs	r1, r1, r10
 1953 012c 29DA     		bge	.L74
 1954              	.L77:
 735:Core/Src/main.c ****                     break;
 1955              		.loc 1 735 21 is_stmt 1 view .LVU536
 735:Core/Src/main.c ****                     break;
 1956              		.loc 1 735 38 is_stmt 0 view .LVU537
 1957 012e 289B     		ldr	r3, [sp, #160]
 1958 0130 289A     		ldr	r2, [sp, #160]
 1959 0132 1B68     		ldr	r3, [r3]
 1960 0134 0133     		adds	r3, r3, #1
 1961 0136 1360     		str	r3, [r2]
 736:Core/Src/main.c ****                 }
 1962              		.loc 1 736 21 is_stmt 1 view .LVU538
 1963              	.L75:
 1964              	.LBE61:
 755:Core/Src/main.c ****         }
ARM GAS  C:\Users\User\AppData\Local\Temp\cciKCUxe.s 			page 75


 1965              		.loc 1 755 13 view .LVU539
 755:Core/Src/main.c ****         }
 1966              		.loc 1 755 28 is_stmt 0 view .LVU540
 1967 0138 0A9B     		ldr	r3, [sp, #40]
 1968 013a 0E9A     		ldr	r2, [sp, #56]
 1969 013c 19EB0303 		adds	r3, r9, r3
 1970 0140 0A93     		str	r3, [sp, #40]
 1971              	.LVL189:
 755:Core/Src/main.c ****         }
 1972              		.loc 1 755 28 view .LVU541
 1973 0142 0B9B     		ldr	r3, [sp, #44]
 1974 0144 43EBE973 		adc	r3, r3, r9, asr #31
 1975 0148 0B93     		str	r3, [sp, #44]
 1976              	.LVL190:
 755:Core/Src/main.c ****         }
 1977              		.loc 1 755 28 view .LVU542
 1978              	.LBE65:
 719:Core/Src/main.c ****             // Calculate x0 = (x / width) * 3.5 - 2.5
 1979              		.loc 1 719 37 is_stmt 1 discriminator 2 view .LVU543
 1980 014a 049B     		ldr	r3, [sp, #16]
 1981              	.LVL191:
 719:Core/Src/main.c ****             // Calculate x0 = (x / width) * 3.5 - 2.5
 1982              		.loc 1 719 37 is_stmt 0 discriminator 2 view .LVU544
 1983 014c 0133     		adds	r3, r3, #1
 1984 014e 0493     		str	r3, [sp, #16]
 1985              	.LVL192:
 719:Core/Src/main.c ****             // Calculate x0 = (x / width) * 3.5 - 2.5
 1986              		.loc 1 719 37 discriminator 2 view .LVU545
 1987 0150 009B     		ldr	r3, [sp]
 1988              	.LVL193:
 719:Core/Src/main.c ****             // Calculate x0 = (x / width) * 3.5 - 2.5
 1989              		.loc 1 719 37 discriminator 2 view .LVU546
 1990 0152 9B18     		adds	r3, r3, r2
 1991 0154 0093     		str	r3, [sp]
 1992 0156 089A     		ldr	r2, [sp, #32]
 1993 0158 0F9B     		ldr	r3, [sp, #60]
 1994 015a 43EB0203 		adc	r3, r3, r2
 1995 015e 0893     		str	r3, [sp, #32]
 1996              	.LVL194:
 1997              	.L81:
 719:Core/Src/main.c ****             // Calculate x0 = (x / width) * 3.5 - 2.5
 1998              		.loc 1 719 27 is_stmt 1 discriminator 1 view .LVU547
 1999 0160 DDE90432 		ldrd	r3, r2, [sp, #16]
 2000 0164 9342     		cmp	r3, r2
 2001 0166 91DB     		blt	.L79
 2002              	.LBE69:
 718:Core/Src/main.c ****         for (int x = 0; x < width; x++) {
 2003              		.loc 1 718 34 discriminator 2 view .LVU548
 2004 0168 039B     		ldr	r3, [sp, #12]
 2005 016a 199A     		ldr	r2, [sp, #100]
 2006 016c 0133     		adds	r3, r3, #1
 2007 016e 0393     		str	r3, [sp, #12]
 2008              	.LVL195:
 718:Core/Src/main.c ****         for (int x = 0; x < width; x++) {
 2009              		.loc 1 718 34 is_stmt 0 discriminator 2 view .LVU549
 2010 0170 109B     		ldr	r3, [sp, #64]
 2011              	.LVL196:
ARM GAS  C:\Users\User\AppData\Local\Temp\cciKCUxe.s 			page 76


 718:Core/Src/main.c ****         for (int x = 0; x < width; x++) {
 2012              		.loc 1 718 34 discriminator 2 view .LVU550
 2013 0172 1BEB0303 		adds	r3, fp, r3
 2014 0176 9B46     		mov	fp, r3
 2015 0178 099B     		ldr	r3, [sp, #36]
 2016 017a 43EB0203 		adc	r3, r3, r2
 2017 017e 0993     		str	r3, [sp, #36]
 2018 0180 7AE7     		b	.L72
 2019              	.LVL197:
 2020              	.L74:
 2021              	.LBB70:
 2022              	.LBB66:
 2023              	.LBB62:
 738:Core/Src/main.c ****                     (*overflow_count)++;
 2024              		.loc 1 738 17 is_stmt 1 view .LVU551
 738:Core/Src/main.c ****                     (*overflow_count)++;
 2025              		.loc 1 738 20 is_stmt 0 view .LVU552
 2026 0182 012E     		cmp	r6, #1
 2027 0184 77F10003 		sbcs	r3, r7, #0
 2028 0188 0ADB     		blt	.L76
 738:Core/Src/main.c ****                     (*overflow_count)++;
 2029              		.loc 1 738 47 discriminator 1 view .LVU553
 2030 018a 2A46     		mov	r2, r5
 2031 018c 4346     		mov	r3, r8
 2032 018e 4FF0FF30 		mov	r0, #-1
 2033 0192 6FF00041 		mvn	r1, #-2147483648
 2034 0196 FFF7FEFF 		bl	__aeabi_ldivmod
 2035              	.LVL198:
 738:Core/Src/main.c ****                     (*overflow_count)++;
 2036              		.loc 1 738 28 discriminator 1 view .LVU554
 2037 019a B042     		cmp	r0, r6
 2038 019c B941     		sbcs	r1, r1, r7
 2039 019e C6DB     		blt	.L77
 2040              	.L76:
 744:Core/Src/main.c ****                 
 2041              		.loc 1 744 17 is_stmt 1 view .LVU555
 2042              	.LVL199:
 747:Core/Src/main.c ****                 
 2043              		.loc 1 747 17 view .LVU556
 747:Core/Src/main.c ****                 
 2044              		.loc 1 747 38 is_stmt 0 view .LVU557
 2045 01a0 04FB08F3 		mul	r3, r4, r8
 2046 01a4 A4FB0502 		umull	r0, r2, r4, r5
 2047 01a8 05FB0A33 		mla	r3, r5, r10, r3
 2048 01ac 1344     		add	r3, r3, r2
 2049 01ae 00FB07F1 		mul	r1, r0, r7
 2050 01b2 06FB0311 		mla	r1, r6, r3, r1
 2051 01b6 A0FB0606 		umull	r0, r6, r0, r6
 2052              	.LVL200:
 747:Core/Src/main.c ****                 
 2053              		.loc 1 747 38 view .LVU558
 2054 01ba 0018     		adds	r0, r0, r0
 2055 01bc 3144     		add	r1, r1, r6
 2056 01be 4941     		adcs	r1, r1, r1
 747:Core/Src/main.c ****                 
 2057              		.loc 1 747 44 view .LVU559
 2058 01c0 2A46     		mov	r2, r5
ARM GAS  C:\Users\User\AppData\Local\Temp\cciKCUxe.s 			page 77


 2059 01c2 4346     		mov	r3, r8
 2060 01c4 FFF7FEFF 		bl	__aeabi_ldivmod
 2061              	.LVL201:
 747:Core/Src/main.c ****                 
 2062              		.loc 1 747 20 view .LVU560
 2063 01c8 179B     		ldr	r3, [sp, #92]
 2064 01ca 1E18     		adds	r6, r3, r0
 2065 01cc 189B     		ldr	r3, [sp, #96]
 744:Core/Src/main.c ****                 
 2066              		.loc 1 744 43 view .LVU561
 2067 01ce 0C98     		ldr	r0, [sp, #48]
 747:Core/Src/main.c ****                 
 2068              		.loc 1 747 20 view .LVU562
 2069 01d0 43EB0107 		adc	r7, r3, r1
 2070              	.LVL202:
 750:Core/Src/main.c ****                 
 2071              		.loc 1 750 17 is_stmt 1 view .LVU563
 744:Core/Src/main.c ****                 
 2072              		.loc 1 744 43 is_stmt 0 view .LVU564
 2073 01d4 2A46     		mov	r2, r5
 2074 01d6 4346     		mov	r3, r8
 2075 01d8 0199     		ldr	r1, [sp, #4]
 2076 01da FFF7FEFF 		bl	__aeabi_ldivmod
 2077              	.LVL203:
 744:Core/Src/main.c ****                 
 2078              		.loc 1 744 72 view .LVU565
 2079 01de 4346     		mov	r3, r8
 744:Core/Src/main.c ****                 
 2080              		.loc 1 744 43 view .LVU566
 2081 01e0 0446     		mov	r4, r0
 2082              	.LVL204:
 744:Core/Src/main.c ****                 
 2083              		.loc 1 744 43 view .LVU567
 2084 01e2 8A46     		mov	r10, r1
 744:Core/Src/main.c ****                 
 2085              		.loc 1 744 72 view .LVU568
 2086 01e4 0D98     		ldr	r0, [sp, #52]
 2087 01e6 0299     		ldr	r1, [sp, #8]
 2088 01e8 2A46     		mov	r2, r5
 2089 01ea FFF7FEFF 		bl	__aeabi_ldivmod
 2090              	.LVL205:
 750:Core/Src/main.c ****                 
 2091              		.loc 1 750 20 view .LVU569
 2092 01ee 159B     		ldr	r3, [sp, #84]
 744:Core/Src/main.c ****                 
 2093              		.loc 1 744 25 view .LVU570
 2094 01f0 241A     		subs	r4, r4, r0
 2095 01f2 6AEB010A 		sbc	r10, r10, r1
 750:Core/Src/main.c ****                 
 2096              		.loc 1 750 20 view .LVU571
 2097 01f6 E418     		adds	r4, r4, r3
 2098 01f8 169B     		ldr	r3, [sp, #88]
 752:Core/Src/main.c ****             }
 2099              		.loc 1 752 26 view .LVU572
 2100 01fa 09F10109 		add	r9, r9, #1
 2101              	.LVL206:
 750:Core/Src/main.c ****                 
ARM GAS  C:\Users\User\AppData\Local\Temp\cciKCUxe.s 			page 78


 2102              		.loc 1 750 20 view .LVU573
 2103 01fe 43EB0A0A 		adc	r10, r3, r10
 2104              	.LVL207:
 752:Core/Src/main.c ****             }
 2105              		.loc 1 752 17 is_stmt 1 view .LVU574
 752:Core/Src/main.c ****             }
 2106              		.loc 1 752 17 is_stmt 0 view .LVU575
 2107 0202 61E7     		b	.L73
 2108              	.LVL208:
 2109              	.L71:
 752:Core/Src/main.c ****             }
 2110              		.loc 1 752 17 view .LVU576
 2111              	.LBE62:
 2112              	.LBE66:
 2113              	.LBE70:
 2114              	.LBE73:
 760:Core/Src/main.c **** 
 2115              		.loc 1 760 1 view .LVU577
 2116 0204 DDE90A01 		ldrd	r0, r1, [sp, #40]
 2117 0208 1DB0     		add	sp, sp, #116
 2118              	.LCFI27:
 2119              		.cfi_def_cfa_offset 36
 2120              		@ sp needed
 2121 020a BDE8F08F 		pop	{r4, r5, r6, r7, r8, r9, r10, fp, pc}
 760:Core/Src/main.c **** 
 2122              		.loc 1 760 1 view .LVU578
 2123              		.cfi_endproc
 2124              	.LFE145:
 2126              		.section	.text.test_scaling_factors,"ax",%progbits
 2127              		.align	1
 2128              		.global	test_scaling_factors
 2129              		.syntax unified
 2130              		.thumb
 2131              		.thumb_func
 2133              	test_scaling_factors:
 2134              	.LFB146:
 763:Core/Src/main.c ****     for (int scale_idx = 0; scale_idx < 3; scale_idx++) {
 2135              		.loc 1 763 33 is_stmt 1 view -0
 2136              		.cfi_startproc
 2137              		@ args = 0, pretend = 0, frame = 16
 2138              		@ frame_needed = 0, uses_anonymous_args = 0
 764:Core/Src/main.c ****         int64_t current_scale = scaling_factors[scale_idx];
 2139              		.loc 1 764 5 view .LVU580
 2140              	.LBB74:
 764:Core/Src/main.c ****         int64_t current_scale = scaling_factors[scale_idx];
 2141              		.loc 1 764 10 view .LVU581
 2142              	.LVL209:
 764:Core/Src/main.c ****         int64_t current_scale = scaling_factors[scale_idx];
 2143              		.loc 1 764 39 discriminator 1 view .LVU582
 2144              	.LBE74:
 763:Core/Src/main.c ****     for (int scale_idx = 0; scale_idx < 3; scale_idx++) {
 2145              		.loc 1 763 33 is_stmt 0 view .LVU583
 2146 0000 2DE9F04F 		push	{r4, r5, r6, r7, r8, r9, r10, fp, lr}
 2147              	.LCFI28:
 2148              		.cfi_def_cfa_offset 36
 2149              		.cfi_offset 4, -36
 2150              		.cfi_offset 5, -32
ARM GAS  C:\Users\User\AppData\Local\Temp\cciKCUxe.s 			page 79


 2151              		.cfi_offset 6, -28
 2152              		.cfi_offset 7, -24
 2153              		.cfi_offset 8, -20
 2154              		.cfi_offset 9, -16
 2155              		.cfi_offset 10, -12
 2156              		.cfi_offset 11, -8
 2157              		.cfi_offset 14, -4
 2158 0004 2DED028B 		vpush.64	{d8}
 2159              	.LCFI29:
 2160              		.cfi_def_cfa_offset 44
 2161              		.cfi_offset 80, -44
 2162              		.cfi_offset 81, -40
 2163 0008 264F     		ldr	r7, .L87
 2164              	.LBB82:
 2165              	.LBB75:
 2166              	.LBB76:
 2167              	.LBB77:
 772:Core/Src/main.c ****             
 2168              		.loc 1 772 30 view .LVU584
 2169 000a DFF8ACB0 		ldr	fp, .L87+20
 775:Core/Src/main.c ****             
 2170              		.loc 1 775 13 view .LVU585
 2171 000e DFF8AC80 		ldr	r8, .L87+24
 782:Core/Src/main.c ****                 current_size, current_size, max_iterations, current_scale, &overflow_count);
 2172              		.loc 1 782 43 view .LVU586
 2173 0012 DFF8ACA0 		ldr	r10, .L87+28
 2174              	.LBE77:
 2175              	.LBE76:
 2176              	.LBE75:
 2177              	.LBE82:
 763:Core/Src/main.c ****     for (int scale_idx = 0; scale_idx < 3; scale_idx++) {
 2178              		.loc 1 763 33 view .LVU587
 2179 0016 89B0     		sub	sp, sp, #36
 2180              	.LCFI30:
 2181              		.cfi_def_cfa_offset 80
 2182              	.LBB83:
 2183 0018 0025     		movs	r5, #0
 2184              	.LVL210:
 2185              	.L84:
 2186              	.LBB81:
 765:Core/Src/main.c ****         
 2187              		.loc 1 765 9 is_stmt 1 view .LVU588
 765:Core/Src/main.c ****         
 2188              		.loc 1 765 17 is_stmt 0 view .LVU589
 2189 001a B7EC028B 		vldmia.64	r7!, {d8}	@ int
 2190              	.LVL211:
 767:Core/Src/main.c ****             int current_size = task7_image_sizes[size_idx];
 2191              		.loc 1 767 9 is_stmt 1 view .LVU590
 2192              	.LBB79:
 767:Core/Src/main.c ****             int current_size = task7_image_sizes[size_idx];
 2193              		.loc 1 767 14 view .LVU591
 767:Core/Src/main.c ****             int current_size = task7_image_sizes[size_idx];
 2194              		.loc 1 767 41 discriminator 1 view .LVU592
 2195 001e 224B     		ldr	r3, .L87+4
 2196              	.LBE79:
 765:Core/Src/main.c ****         
 2197              		.loc 1 765 17 is_stmt 0 view .LVU593
ARM GAS  C:\Users\User\AppData\Local\Temp\cciKCUxe.s 			page 80


 2198 0020 2C46     		mov	r4, r5
 2199              	.LVL212:
 2200              	.L83:
 2201              	.LBB80:
 2202              	.LBB78:
 768:Core/Src/main.c ****             
 2203              		.loc 1 768 13 is_stmt 1 view .LVU594
 768:Core/Src/main.c ****             
 2204              		.loc 1 768 17 is_stmt 0 view .LVU595
 2205 0022 53F8042B 		ldr	r2, [r3], #4
 772:Core/Src/main.c ****             
 2206              		.loc 1 772 30 view .LVU596
 2207 0026 CBF80040 		str	r4, [fp]
 768:Core/Src/main.c ****             
 2208              		.loc 1 768 17 view .LVU597
 2209 002a CDE90423 		strd	r2, r3, [sp, #16]
 2210              	.LVL213:
 771:Core/Src/main.c ****             task7_test_index = test_index;
 2211              		.loc 1 771 13 is_stmt 1 view .LVU598
 772:Core/Src/main.c ****             
 2212              		.loc 1 772 13 view .LVU599
 775:Core/Src/main.c ****             
 2213              		.loc 1 775 13 view .LVU600
 2214 002e 0122     		movs	r2, #1
 2215              	.LVL214:
 775:Core/Src/main.c ****             
 2216              		.loc 1 775 13 is_stmt 0 view .LVU601
 2217 0030 1146     		mov	r1, r2
 2218 0032 4046     		mov	r0, r8
 2219 0034 FFF7FEFF 		bl	HAL_GPIO_WritePin
 2220              	.LVL215:
 778:Core/Src/main.c ****             
 2221              		.loc 1 778 13 is_stmt 1 view .LVU602
 778:Core/Src/main.c ****             
 2222              		.loc 1 778 35 is_stmt 0 view .LVU603
 2223 0038 FFF7FEFF 		bl	HAL_GetTick
 2224              	.LVL216:
 782:Core/Src/main.c ****                 current_size, current_size, max_iterations, current_scale, &overflow_count);
 2225              		.loc 1 782 43 view .LVU604
 2226 003c 8DED008B 		vstr.64	d8, [sp]	@ int
 2227 0040 0499     		ldr	r1, [sp, #16]
 2228 0042 07AA     		add	r2, sp, #28
 2229 0044 0292     		str	r2, [sp, #8]
 2230 0046 DAF80020 		ldr	r2, [r10]
 778:Core/Src/main.c ****             
 2231              		.loc 1 778 35 view .LVU605
 2232 004a 0646     		mov	r6, r0
 2233              	.LVL217:
 781:Core/Src/main.c ****             task7_checksums[test_index] = calculate_mandelbrot_fixed_point_with_scale(
 2234              		.loc 1 781 13 is_stmt 1 view .LVU606
 781:Core/Src/main.c ****             task7_checksums[test_index] = calculate_mandelbrot_fixed_point_with_scale(
 2235              		.loc 1 781 22 is_stmt 0 view .LVU607
 2236 004c 4FF00009 		mov	r9, #0
 782:Core/Src/main.c ****                 current_size, current_size, max_iterations, current_scale, &overflow_count);
 2237              		.loc 1 782 43 view .LVU608
 2238 0050 0846     		mov	r0, r1
 2239              	.LVL218:
ARM GAS  C:\Users\User\AppData\Local\Temp\cciKCUxe.s 			page 81


 781:Core/Src/main.c ****             task7_checksums[test_index] = calculate_mandelbrot_fixed_point_with_scale(
 2240              		.loc 1 781 22 view .LVU609
 2241 0052 CDF81C90 		str	r9, [sp, #28]
 782:Core/Src/main.c ****                 current_size, current_size, max_iterations, current_scale, &overflow_count);
 2242              		.loc 1 782 13 is_stmt 1 view .LVU610
 782:Core/Src/main.c ****                 current_size, current_size, max_iterations, current_scale, &overflow_count);
 2243              		.loc 1 782 43 is_stmt 0 view .LVU611
 2244 0056 FFF7FEFF 		bl	calculate_mandelbrot_fixed_point_with_scale
 2245              	.LVL219:
 782:Core/Src/main.c ****                 current_size, current_size, max_iterations, current_scale, &overflow_count);
 2246              		.loc 1 782 41 discriminator 1 view .LVU612
 2247 005a 144A     		ldr	r2, .L87+8
 2248 005c 02EBC402 		add	r2, r2, r4, lsl #3
 2249 0060 C2E90001 		strd	r0, [r2]
 786:Core/Src/main.c ****             task7_execution_times[test_index] = end_time - start_time;
 2250              		.loc 1 786 13 is_stmt 1 view .LVU613
 786:Core/Src/main.c ****             task7_execution_times[test_index] = end_time - start_time;
 2251              		.loc 1 786 33 is_stmt 0 view .LVU614
 2252 0064 FFF7FEFF 		bl	HAL_GetTick
 2253              	.LVL220:
 787:Core/Src/main.c ****             task7_overflow_counts[test_index] = overflow_count;
 2254              		.loc 1 787 13 is_stmt 1 view .LVU615
 787:Core/Src/main.c ****             task7_overflow_counts[test_index] = overflow_count;
 2255              		.loc 1 787 47 is_stmt 0 view .LVU616
 2256 0068 114A     		ldr	r2, .L87+12
 788:Core/Src/main.c ****             
 2257              		.loc 1 788 47 view .LVU617
 2258 006a 0799     		ldr	r1, [sp, #28]
 787:Core/Src/main.c ****             task7_overflow_counts[test_index] = overflow_count;
 2259              		.loc 1 787 58 view .LVU618
 2260 006c 801B     		subs	r0, r0, r6
 2261              	.LVL221:
 787:Core/Src/main.c ****             task7_overflow_counts[test_index] = overflow_count;
 2262              		.loc 1 787 47 view .LVU619
 2263 006e 42F82400 		str	r0, [r2, r4, lsl #2]
 788:Core/Src/main.c ****             
 2264              		.loc 1 788 13 is_stmt 1 view .LVU620
 788:Core/Src/main.c ****             
 2265              		.loc 1 788 47 is_stmt 0 view .LVU621
 2266 0072 104A     		ldr	r2, .L87+16
 790:Core/Src/main.c ****             HAL_Delay(200);
 2267              		.loc 1 790 13 view .LVU622
 2268 0074 4046     		mov	r0, r8
 788:Core/Src/main.c ****             
 2269              		.loc 1 788 47 view .LVU623
 2270 0076 42F82410 		str	r1, [r2, r4, lsl #2]
 790:Core/Src/main.c ****             HAL_Delay(200);
 2271              		.loc 1 790 13 is_stmt 1 view .LVU624
 2272 007a 4A46     		mov	r2, r9
 2273 007c 0121     		movs	r1, #1
 2274 007e FFF7FEFF 		bl	HAL_GPIO_WritePin
 2275              	.LVL222:
 791:Core/Src/main.c ****         }
 2276              		.loc 1 791 13 view .LVU625
 2277 0082 C820     		movs	r0, #200
 2278 0084 FFF7FEFF 		bl	HAL_Delay
 2279              	.LVL223:
ARM GAS  C:\Users\User\AppData\Local\Temp\cciKCUxe.s 			page 82


 2280              	.LBE78:
 767:Core/Src/main.c ****             int current_size = task7_image_sizes[size_idx];
 2281              		.loc 1 767 54 discriminator 3 view .LVU626
 767:Core/Src/main.c ****             int current_size = task7_image_sizes[size_idx];
 2282              		.loc 1 767 41 discriminator 1 view .LVU627
 2283 0088 0134     		adds	r4, r4, #1
 2284              	.LVL224:
 767:Core/Src/main.c ****             int current_size = task7_image_sizes[size_idx];
 2285              		.loc 1 767 41 is_stmt 0 discriminator 1 view .LVU628
 2286 008a 6A1D     		adds	r2, r5, #5
 2287 008c 9442     		cmp	r4, r2
 2288 008e 059B     		ldr	r3, [sp, #20]
 2289 0090 C7D1     		bne	.L83
 2290              	.LBE80:
 2291              	.LBE81:
 764:Core/Src/main.c ****         int64_t current_scale = scaling_factors[scale_idx];
 2292              		.loc 1 764 53 is_stmt 1 discriminator 2 view .LVU629
 764:Core/Src/main.c ****         int64_t current_scale = scaling_factors[scale_idx];
 2293              		.loc 1 764 39 discriminator 1 view .LVU630
 2294 0092 0F2C     		cmp	r4, #15
 2295 0094 04D1     		bne	.L85
 2296              	.LBE83:
 794:Core/Src/main.c **** 
 2297              		.loc 1 794 1 is_stmt 0 view .LVU631
 2298 0096 09B0     		add	sp, sp, #36
 2299              	.LCFI31:
 2300              		.cfi_remember_state
 2301              		.cfi_def_cfa_offset 44
 2302              		@ sp needed
 2303 0098 BDEC028B 		vldm	sp!, {d8}
 2304              	.LCFI32:
 2305              		.cfi_restore 80
 2306              		.cfi_restore 81
 2307              		.cfi_def_cfa_offset 36
 2308              	.LVL225:
 794:Core/Src/main.c **** 
 2309              		.loc 1 794 1 view .LVU632
 2310 009c BDE8F08F 		pop	{r4, r5, r6, r7, r8, r9, r10, fp, pc}
 2311              	.LVL226:
 2312              	.L85:
 2313              	.LCFI33:
 2314              		.cfi_restore_state
 2315              	.LBB84:
 794:Core/Src/main.c **** 
